(lp0
(dp1
S'word_count'
p2
(dp3
S''
p4
I3
sS'Lottery'
p5
I1
sS'just'
p6
I1
sS'issued'
p7
I1
sS'over'
p8
I1
sS'results'
p9
I1
sS'Winning'
p10
I1
sS'held'
p11
I1
sS'7RJ,\nUnited'
p12
I1
sS'through'
p13
I1
sS'in\nthe'
p14
I1
sS'20'
p15
I1
sS'38\n(3)'
p16
I1
sS'Winning:'
p17
I1
sS'Eighty'
p18
I1
sS'Lucky'
p19
I1
sS'to'
p20
I5
sS'2012'
p21
I2
sS'http://www.bbc.co.uk/lottery/\n\nDear'
p22
I1
sS'NATIONAL'
p23
I1
sS'on\nSaturday'
p24
I1
sS'Two'
p25
I1
sS'Below'
p26
I1
sS'Sterling)'
p27
I1
sS'Winning\nparticulars'
p28
I1
sS'Validation'
p29
I1
sS'\xc2\xa31,263,584.00'
p30
I1
sS'Borg.\nLottery'
p31
I1
sS'OJ'
p32
I1
sS'and\nSend'
p33
I1
sS'Olympic'
p34
I1
sS'name'
p35
I1
sS'success'
p36
I1
sS'W12'
p37
I1
sS'SEND'
p38
I1
sS'Four'
p39
I1
sS'the\nfollowing'
p40
I1
sS'London'
p41
I2
sS'No:'
p42
I3
sS'VALIDATION'
p43
I1
sS'1674\n\nFor'
p44
I1
sS'concluded'
p45
I1
sS'Thousand,\nFive'
p46
I1
sS'carefully'
p47
I1
sS'Listed'
p48
I1
sS'GBP'
p49
I1
sS'it.\n\n(1)'
p50
I1
sS'7th'
p51
I1
sS'congratulate'
p52
I1
sS'Government'
p53
I1
sS'notification'
p54
I1
sS'08'
p55
I1
sS'Pounds'
p56
I1
sS'e-mail'
p57
I1
sS'electronic\nonline'
p58
I1
sS'surprise'
p59
I1
sS'be'
p60
I1
sS'we'
p61
I1
sS'FOR'
p62
I1
sS'Forward'
p63
I1
sS'Watson).\nSincerely,\nMr.'
p64
I1
sS'here'
p65
I1
sS'Kingdom.\nConfirm'
p66
I1
sS'Lindsey'
p67
I2
sS'the\nlucky'
p68
I1
sS'come'
p69
I1
sS'by'
p70
I1
sS'please\nfind'
p71
I1
sS'AND'
p72
I1
sS'of'
p73
I4
sS'National'
p74
I2
sS'Committee'
p75
I1
sS'LOTTERY\nWood'
p76
I1
sS'DETAILS'
p77
I1
sS'(One'
p78
I1
sS'Three'
p79
I1
sS'conjunction\nwith'
p80
I1
sS'one'
p81
I1
sS'Draft'
p82
I1
sS'Hundred'
p83
I1
sS'your'
p84
I3
sS'Draw'
p85
I1
sS'publication'
p86
I1
sS'Lotto\n'
p87
I1
sS'Hundred\nand'
p88
I1
sS'was'
p89
I1
sS'winners.\n\nIt'
p90
I1
sS'this\nOffice'
p91
I1
sS'that'
p92
I2
sS'January'
p93
I1
sS'apparent'
p94
I1
sS'BBC'
p95
I2
sS'but'
p96
I1
sS'released'
p97
I1
sS'47\n(2)'
p98
I1
sS'Following'
p99
I1
sS'REPLY'
p100
I1
sS'with'
p101
I1
sS'15'
p102
I1
sS'14'
p103
I1
sS'17'
p104
I1
sS'this'
p105
I1
sS'official'
p106
I1
sS'attached'
p107
I1
sS'will'
p108
I2
sS'Lane,'
p109
I1
sS'and'
p110
I4
sS'Information'
p111
I1
sS'Names:\n.Age/Sex:\n.Occupation/Position:\n\nCLICK'
p112
I1
sS'is'
p113
I2
sS'organized'
p114
I1
sS'it'
p115
I1
sS'as'
p116
I4
sS'in'
p117
I3
sS'Sweepstakes'
p118
I1
sS'confirmed'
p119
I1
sS'Bonus'
p120
I1
sS'Million'
p121
I1
sS'ONE'
p122
I1
sS'note'
p123
I1
sS'TO'
p124
I1
sS'Purpose,'
p125
I1
sS'address:\n.Tel(Mobile):\n.Nationality/Country:\n.Full'
p126
I1
sS'(Mrs.'
p127
I2
sS'Sixty'
p128
I1
sS'you'
p129
I2
sS'Winner,\n\nIt'
p130
I1
sS'British'
p131
I1
sS'London.\n\nA'
p132
I1
sS'important'
p133
I1
sS'award'
p134
I1
sS'The'
p135
I2
sS'a'
p136
I1
sS'Presenter'
p137
I1
sS'read'
p138
I1
sS'General,\nBBC'
p139
I1
sS'One'
p140
I2
sS'time'
p141
I1
sS'the'
p142
I3
sS'Watson):\n.Residential'
p143
I1
ssS'label'
p144
S'SPAM'
p145
sa(dp146
S'word_count'
p147
(dp148
g4
I41
sS'email,'
p149
I1
sS'indeed'
p150
I1
sS'Jan'
p151
I1
sS'etc)"\n'
p152
I1
sS'specific\nthan'
p153
I1
sS'.....'
p154
I2
sS'<CAHwD5pmjUb-dUJKJ7mEwGJtKZP5U80Q9fr7GHp4+agif_m3+fQ@mail.gmail.com>\nContent-Type:'
p155
I1
sS'tsk'
p156
I2
sS'Skunkworks'
p157
I1
sS'34,'
p158
I1
sS'with'
p159
I1
sS','
p160
I1
sS'send'
p161
I1
sS'World'
p162
I1
sS'Assessments'
p163
I1
sS'submissions'
p164
I1
sS'security-request@lists.my.co.ke\n\nYou'
p165
I1
sS'2012'
p166
I1
sS'1\nDate:'
p167
I1
sS'risk'
p168
I1
sS'Disastor'
p169
I1
sS'Topics:\n\n'
p170
I1
sS'(geoffrey'
p171
I1
sS'India'
p172
I1
sS'security,\n'
p173
I1
sS'edit'
p174
I1
sS'http://orion.my.co.ke/cgi-bin/mailman/listinfo/security\nor,'
p175
I1
sS'night'
p176
I2
sS'security'
p177
I1
sS'Subject'
p178
I1
sS'14\n****************************************\n\n'
p179
I1
sS'list'
p180
I2
sS'at\n'
p181
I1
sS'Send'
p182
I1
sS'are'
p183
I1
sS'discussions'
p184
I1
sS'[Security'
p185
I1
sS'message'
p186
I1
sS'subject'
p187
I1
sS'PR'
p188
I2
sS'Symantec'
p189
I2
sS'managing'
p190
I1
sS'please'
p191
I1
sS'Web,'
p192
I1
sS'HTML'
p193
I1
sS'management,'
p194
I1
sS'body'
p195
I1
sS'be'
p196
I1
sS'Forum'
p197
I1
sS'this\nhttp://www.techspot.com/news/46990-indian-military-computers-hacked-symantec-source-code-leaked.html\n\n\nIf'
p198
I1
sS'List'
p199
I1
sS'tsk\n\n--'
p200
I1
sS'here\n'
p201
I1
sS'Wed,'
p202
I1
sS'Security'
p203
I5
sS'Mailing'
p204
I1
sS'on'
p205
I1
sS'of'
p206
I3
sS'could'
p207
I1
sS'computers'
p208
I1
sS'US'
p209
I1
sS'etc'
p210
I1
sS'gitagia'
p211
I1
sS'+0300\nFrom:'
p212
I1
sS'or'
p213
I2
sS'Contents'
p214
I1
sS'via'
p215
I2
sS'<http://orion.my.co.ke/pipermail/security/attachments/20120111/a0e1f97f/attachment.html>\n\n------------------------------\n\n_______________________________________________\nSecurity'
p216
I1
sS'mare\nMessage-ID:\n'
p217
I1
sS'subscribe'
p218
I1
sS'done'
p219
I1
sS'list\nSecurity@lists.my.co.ke\nhttp://orion.my.co.ke/cgi-bin/mailman/listinfo/security\n\n\nEnd'
p220
I1
sS'08:50:47'
p221
I1
sS'your'
p222
I1
sS'millions'
p223
I1
sS'mare'
p224
I1
sS'--------------\nAn'
p225
I1
sS'<skunkworks@lists.my.co.ke>,'
p226
I1
sS'charset="iso-8859-1"\n\nJust'
p227
I1
sS'next'
p228
I1
sS'geoffrey'
p229
I1
sS'"Security\n'
p230
I1
sS'was'
p231
I1
sS'more'
p232
I1
sS'Recovery,'
p233
I1
sS'Digest,'
p234
I1
sS'security-owner@lists.my.co.ke\n\nWhen'
p235
I1
sS'text/plain;'
p236
I1
sS'to\n'
p237
I2
sS'Forum]'
p238
I1
sS'part'
p239
I1
sS'unsubscribe'
p240
I1
sS'and\nwhat'
p241
I1
sS'line'
p242
I1
sS'true'
p243
I1
sS'11'
p244
I1
sS'this'
p245
I1
sS'Africa'
p246
I1
sS'Vol'
p247
I1
sS'can'
p248
I1
sS'1.'
p249
I1
sS'replying,'
p250
I1
sS'<security@lists.my.co.ke>\nSubject:'
p251
I1
sS'spying'
p252
I1
sS'is'
p253
I3
sS'it'
p254
I1
sS'digest..."\n\n\nToday\'s'
p255
I1
sS'"Re:'
p256
I1
sS'in'
p257
I1
sS'saw'
p258
I1
sS'physical'
p259
I1
sS'information'
p260
I1
sS'<ggitagia@gmail.com>\nTo:'
p261
I1
sS'(Hacking,'
p262
I1
sS'Issue'
p263
I1
sS'attachment'
p264
I1
sS'Decryptions,'
p265
I1
sS'visit\n'
p266
I1
sS'gitagia)\n\n\n----------------------------------------------------------------------\n\nMessage:'
p267
I1
sS'Wide'
p268
I1
sS'reach'
p269
I1
sS'a'
p270
I1
sS'All'
p271
I1
sS"'help'"
p272
I1
sS'scrubbed...\nURL:'
p273
I1
sS'\nGG\n--------------'
p274
I1
sS'person'
p275
I1
sS'so'
p276
I1
sS'at'
p277
I1
sS'the'
p278
I3
sS'mailing'
p279
I2
sS'security@lists.my.co.ke\n\nTo'
p280
I1
ssS'label'
p281
S'GENUINE'
p282
sa(dp283
S'word_count'
p284
(dp285
S'and'
p286
I1
sS'Inc.\n'
p287
I1
sS'because'
p288
I1
sS'is'
p289
I1
sS'Hello!\n-----------------------------------------------------------\nUnfortunately'
p290
I1
sS'our\noffice.\n----------------------------------------------------------\nUSPS'
p291
I1
sS'at'
p292
I1
sS'have'
p293
I1
sS'out'
p294
I1
sS'failed'
p295
I1
sS'label'
p296
I1
sS"recipient's"
p297
I1
sS'to'
p298
I1
sS'shipment'
p299
I1
sS'print'
p300
I1
sS'you'
p301
I1
sS'sent'
p302
I1
sS'we'
p303
I1
sS'deliver'
p304
I1
sS'December\nin'
p305
I1
sS'erroneous.\n\nPlease'
p306
I1
sS'address'
p307
I1
sS'postal'
p308
I1
sS'the\n28th'
p309
I1
sS'on'
p310
I1
sS'package'
p311
I2
sS'of'
p312
I1
sS'attached'
p313
I1
sS'collect'
p314
I1
sS'time'
p315
I1
sS'the'
p316
I4
ssS'label'
p317
g145
sa(dp318
S'word_count'
p319
(dp320
S'all'
p321
I2
sS'concept'
p322
I5
sS'\nOnce'
p323
I1
sS'pictures,'
p324
I1
sS'scratch'
p325
I1
sS'go'
p326
I2
sS'seemed'
p327
I1
sS'further:\n'
p328
I1
sS'pointing'
p329
I1
sS'technique'
p330
I8
sS'History,'
p331
I1
sS'to'
p332
I35
sS'helps'
p333
I1
sS'teaching'
p334
I1
sS'questions,'
p335
I1
sS'uploaded'
p336
I1
sS'far'
p337
I1
sS'seemingly'
p338
I1
sS'sloppy'
p339
I1
sS"I'd"
p340
I2
sS'memorable.'
p341
I1
sS'fall'
p342
I1
sS"I'm"
p343
I2
sS'(Large'
p344
I1
sS'entire'
p345
I1
sS'basics'
p346
I1
sS'Just'
p347
I2
sS'level'
p348
I1
sS'did'
p349
I1
sS'problems,'
p350
I1
sS'help,'
p351
I1
sS'problems.'
p352
I1
sS'try'
p353
I3
sS'quick'
p354
I1
sS'essential,'
p355
I1
sS'prevent'
p356
I1
sS'misconceptions.'
p357
I1
sS'else.'
p358
I1
sS'unnecessary,'
p359
I1
sS'video'
p360
I2
sS'physics,'
p361
I1
sS'physics.'
p362
I1
sS'further'
p363
I1
sS'acid'
p364
I1
sS'that,'
p365
I1
sS'what'
p366
I7
sS'holes/errors'
p367
I1
sS'understood,'
p368
I1
sS'method'
p369
I1
sS'validity.'
p370
I1
sS'full'
p371
I1
sS'never'
p372
I1
sS'component'
p373
I1
sS'drew'
p374
I1
sS'understanding'
p375
I4
sS'Feynman'
p376
I10
sS'Z-scheme'
p377
I1
sS'My'
p378
I1
sS'here:'
p379
I1
sS'search'
p380
I1
sS'crucial,'
p381
I1
sS'shift'
p382
I1
sS'http://www.scotthyoung.com/mit/802-notes.pdf'
p383
I1
sS'allows'
p384
I1
sS'completely'
p385
I1
sS'through'
p386
I2
sS'Your'
p387
I1
sS'yourself,'
p388
I1
sS'Technique.\n'
p389
I1
sS'makes'
p390
I1
sS'useful'
p391
I2
sS'myself,'
p392
I1
sS'Technique'
p393
I7
sS'apply'
p394
I1
sS'know,'
p395
I1
sS'use'
p396
I2
sS'from'
p397
I3
sS'would'
p398
I1
sS'concept,'
p399
I1
sS'concept.'
p400
I1
sS'\nAs'
p401
I1
sS'next'
p402
I1
sS'memorization.'
p403
I1
sS'call'
p404
I1
sS'calculus.\nAdvanced'
p405
I1
sS'until'
p406
I1
sS'diagrams'
p407
I1
sS'more'
p408
I3
sS'started'
p409
I1
sS'Inscrutable?\n\nChemistry'
p410
I1
sS'Websites'
p411
I1
sS'visual'
p412
I1
sS'excellent'
p413
I1
sS'rote.\n'
p414
I1
sS'me'
p415
I1
sS'this'
p416
I4
sS'work'
p417
I1
sS'itself'
p418
I1
sS'obvious'
p419
I1
sS'can'
p420
I6
sS'learn'
p421
I1
sS'head.\n'
p422
I1
sS'making'
p423
I2
sS'my'
p424
I4
sS'example'
p425
I2
sS'proof'
p426
I1
sS'process'
p427
I4
sS'in'
p428
I12
sS'topic'
p429
I2
sS'reviewing'
p430
I1
sS'want'
p431
I2
sS'block.'
p432
I1
sS'\nClick'
p433
I1
sS'chemical'
p434
I1
sS'how'
p435
I2
sS'answer'
p436
I1
sS'tactics'
p437
I1
sS'butting'
p438
I1
sS'glycosis,'
p439
I1
sS'equilibrium.'
p440
I1
sS'A'
p441
I1
sS'4-minute'
p442
I1
sS'tried'
p443
I2
sS'may'
p444
I1
sS'philosophy'
p445
I1
sS'wrong'
p446
I1
sS'such'
p447
I1
sS'a'
p448
I19
sS'changes'
p449
I1
sS'calculation.\n'
p450
I1
sS'so'
p451
I2
sS'fundamental'
p452
I1
sS'realizing'
p453
I1
sS'instruction,'
p454
I1
sS"don't"
p455
I3
sS'Often,'
p456
I1
sS'course'
p457
I2
sS'paper'
p458
I1
sS"won't"
p459
I2
sS'down,'
p460
I1
sS'Challenge,'
p461
I2
sS'MIT'
p462
I2
sS'digest'
p463
I1
sS'before'
p464
I1
sS'write'
p465
I2
sS'derive'
p466
I1
sS'fit'
p467
I1
sS'already,'
p468
I1
sS'solving'
p469
I2
sS'complex'
p470
I1
sS'better'
p471
I1
sS'offers'
p472
I1
sS'Using'
p473
I1
sS'using.'
p474
I1
sS'easier'
p475
I2
sS'then'
p476
I2
sS'them'
p477
I1
sS'someone'
p478
I1
sS'practice'
p479
I4
sS'they'
p480
I2
sS'not'
p481
I2
sS'now'
p482
I1
sS'complain'
p483
I1
sS'always'
p484
I1
sS'university'
p485
I1
sS'simple).'
p486
I1
sS'chemistry,'
p487
I2
sS'trap'
p488
I1
sS'each'
p489
I2
sS'debug'
p490
I1
sS'found'
p491
I2
sS"isn't"
p492
I1
sS'difficult,'
p493
I1
sS'doing'
p494
I1
sS'hard'
p495
I2
sS'principles'
p496
I1
sS'used'
p497
I3
sS'faster.\n'
p498
I1
sS'small,'
p499
I1
sS'really'
p500
I1
sS'missed'
p501
I1
sS'since'
p502
I2
sS'content'
p503
I1
sS'stuck,'
p504
I1
sS'lecture'
p505
I1
sS'(that'
p506
I1
sS'after'
p507
I1
sS'This'
p508
I2
sS'free'
p509
I1
sS'reason'
p510
I1
sS'sheet'
p511
I1
sS'wanted'
p512
I1
sS'\nhttp://www.scotthyoung.com/lmslvidcourse/'
p513
I1
sS'first'
p514
I2
sS'intuition'
p515
I1
sS'\nPhysics'
p516
I1
sS'feel'
p517
I1
sS'powerful'
p518
I1
sS'one'
p519
I1
sS'electromagnetism,'
p520
I1
sS'Going'
p521
I1
sS'done'
p522
I2
sS'another'
p523
I1
sS'sounds'
p524
I1
sS'\n---\n'
p525
I1
sS'Memorization?\n\nMany'
p526
I1
sS"you're"
p527
I1
sS'heads'
p528
I1
sS'start'
p529
I1
sS'their'
p530
I1
sS'too'
p531
I1
sS'easy,'
p532
I1
sS'lot'
p533
I3
sS'that'
p534
I5
sS'vivid.'
p535
I1
sS'explanation'
p536
I1
sS'exactly'
p537
I2
sS'part'
p538
I1
sS'differentiate'
p539
I1
sS'somewhat'
p540
I1
sS'Often'
p541
I1
sS'point.\nIs'
p542
I1
sS'(hint:'
p543
I1
sS'were'
p544
I1
sS'photosynthesis'
p545
I1
sS'result'
p546
I1
sS'and'
p547
I10
sS'Richard'
p548
I1
sS'have'
p549
I2
sS'need'
p550
I1
sS'KhanAcademy.org'
p551
I1
sS'concentration'
p552
I1
sS'tells'
p553
I1
sS'domains.'
p554
I1
sS'word.\n'
p555
I1
sS'thoroughly'
p556
I1
sS'ideas'
p557
I1
sS'track.\nIs'
p558
I1
sS'also'
p559
I4
sS'take'
p560
I1
sS'performance,'
p561
I1
sS'techniques'
p562
I1
sS'understand,'
p563
I1
sS'understand.'
p564
I1
sS'even'
p565
I2
sS'begin'
p566
I1
sS'unless'
p567
I1
sS'allow'
p568
I1
sS'though'
p569
I1
sS'who'
p570
I1
sS'that.'
p571
I1
sS'most'
p572
I1
sS'topic,'
p573
I2
sS'long,'
p574
I1
sS'why'
p575
I1
sS'deeply,'
p576
I1
sS'clear'
p577
I1
sS'sometimes'
p578
I1
sS'\nSince'
p579
I1
sS'email.'
p580
I1
sS'email,'
p581
I1
sS"\nI've"
p582
I1
sS'holistic'
p583
I1
sS'Feynman,'
p584
I1
sS'it).\n'
p585
I1
sS'explain'
p586
I2
sS'memorized.\n'
p587
I1
sS'acid-base'
p588
I1
sS'should'
p589
I1
sS'only'
p590
I3
sS'going'
p591
I1
sS'candidates'
p592
I1
sS'do'
p593
I1
sS'get'
p594
I3
sS'during'
p595
I1
sS'processes'
p596
I3
sS'situation.'
p597
I1
sS'common'
p598
I2
sS'\nCalculus,'
p599
I1
sS'explanations'
p600
I1
sS'knowing'
p601
I1
sS'For'
p602
I2
sS'see'
p603
I3
sS'are'
p604
I5
sS'best'
p605
I1
sS'\nYou'
p606
I1
sS'rewritten.'
p607
I1
sS'Biology'
p608
I1
sS'http://www.youtube.com/watch?v=FrNqSLPaZLc\n'
p609
I1
sS'its'
p610
I1
sS'written'
p611
I2
sS"there's"
p612
I1
sS'affecting'
p613
I1
sS'probably'
p614
I1
sS'technique,'
p615
I3
sS'notice'
p616
I1
sS'recently'
p617
I1
sS'exam'
p618
I1
sS'ideas,'
p619
I1
sS'here'
p620
I3
sS'key'
p621
I2
sS'worksheets'
p622
I1
sS'come'
p623
I1
sS'Nobel-laureate'
p624
I1
sS'many'
p625
I1
sS'asked'
p626
I1
sS'comes'
p627
I1
sS'Amino'
p628
I1
sS'articulate,'
p629
I1
sS'point'
p630
I1
sS'simple'
p631
I1
sS'had'
p632
I3
sS'Hey'
p633
I1
sS'walk'
p634
I1
sS'simply'
p635
I1
sS'learning'
p636
I3
sS'erased,'
p637
I1
sS'Calculus'
p638
I1
sS"I've"
p639
I2
sS"it's"
p640
I2
sS'been'
p641
I2
sS'examples,'
p642
I1
sS'much'
p643
I3
sS'tactic'
p644
I2
sS'first-year'
p645
I1
sS'ideas.\nIs'
p646
I1
sS'understand'
p647
I3
sS'\nThis'
p648
I1
sS'Questions?\n\nPractice'
p649
I1
sS'those'
p650
I1
sS'case'
p651
I1
sS'myself'
p652
I1
sS'look'
p653
I1
sS'Steroids'
p654
I1
sS'these'
p655
I2
sS'will'
p656
I2
sS'aid'
p657
I1
sS'procedure'
p658
I1
sS'mistake'
p659
I1
sS'it.\n'
p660
I1
sS'is'
p661
I15
sS'thus'
p662
I1
sS'it'
p663
I8
sS'top.'
p664
I1
sS'good'
p665
I3
sS'error--I'
p666
I1
sS'Instead'
p667
I1
sS'You'
p668
I1
sS'seem'
p669
I1
sS'disappear'
p670
I1
sS'if'
p671
I1
sS'problems.\n'
p672
I1
sS'things'
p673
I1
sS'make'
p674
I3
sS'\nBest,\n-Scott\n\n'
p675
I1
sS'Understanding'
p676
I1
sS'highlighted'
p677
I1
sS'parts'
p678
I2
sS'PDF)\n'
p679
I1
sS'non-science'
p680
I1
sS'difficult'
p681
I1
sS'fairly'
p682
I1
sS'literature'
p683
I1
sS'I'
p684
I23
sS"writer's"
p685
I1
sS'thoughts'
p686
I1
sS'relies'
p687
I1
sS'Own'
p688
I1
sS'studies'
p689
I1
sS'It'
p690
I3
sS'which,'
p691
I1
sS'solve'
p692
I1
sS'Physics\n\nSince'
p693
I1
sS'In'
p694
I1
sS'very'
p695
I1
sS'the'
p696
I58
sS'If'
p697
I1
sS'just'
p698
I4
sS'increasingly'
p699
I1
sS'leap.\nStart'
p700
I1
sS'underlying'
p701
I1
sS'questions'
p702
I1
sS'memorizing.'
p703
I1
sS'possible,'
p704
I1
sS'step,'
p705
I1
sS'YouTube'
p706
I1
sS'blog'
p707
I1
sS'assortments'
p708
I1
sS'Although'
p709
I1
sS'has'
p710
I2
sS'which'
p711
I7
sS'fact,'
p712
I1
sS'big'
p713
I1
sS'know'
p714
I1
sS'using'
p715
I2
sS'formal'
p716
I1
sS'like'
p717
I3
sS'identifying'
p718
I1
sS'facts,'
p719
I1
sS'specific'
p720
I1
sS'Learning'
p721
I1
sS'arbitrary'
p722
I1
sS'works'
p723
I1
sS'complicated,'
p724
I1
sS'kenny,\n'
p725
I1
sS'simple,'
p726
I1
sS'because'
p727
I2
sS'titration.'
p728
I1
sS'people'
p729
I1
sS'some'
p730
I3
sS'back'
p731
I1
sS'understood'
p732
I1
sS'examples'
p733
I2
sS'members,'
p734
I1
sS'newsletter'
p735
I1
sS'confusing'
p736
I2
sS'before,'
p737
I2
sS'pinpoint'
p738
I1
sS'for'
p739
I10
sS'Getting'
p740
I1
sS'integration'
p741
I2
sS'mid-calculation'
p742
I1
sS'be'
p743
I5
sS'biology'
p744
I4
sS'\nThe'
p745
I2
sS'questions.'
p746
I1
sS'power'
p747
I1
sS'example,'
p748
I1
sS'method:'
p749
I1
sS'step'
p750
I1
sS'although'
p751
I1
sS'problem--you'
p752
I1
sS'post'
p753
I2
sS'Chemistry'
p754
I2
sS'by'
p755
I4
sS'simpler'
p756
I1
sS'on'
p757
I6
sS'about'
p758
I6
sS'of'
p759
I24
sS'intuition.'
p760
I1
sS'distinct'
p761
I1
sS'own'
p762
I2
sS'or'
p763
I3
sS'Really'
p764
I1
sS'Yes,'
p765
I1
sS'into'
p766
I2
sS'within'
p767
I1
sS'well-suited'
p768
I1
sS'two'
p769
I1
sS'down'
p770
I1
sS'BetterExplained.com,'
p771
I1
sS'Learning\n\nLook'
p772
I1
sS'topics.\n'
p773
I1
sS'your'
p774
I2
sS'often'
p775
I1
sS'\nIf'
p776
I1
sS'\nIn'
p777
I1
sS'there'
p778
I1
sS'\nA'
p779
I1
sS'parts,'
p780
I1
sS'way'
p781
I2
sS'step-by-step'
p782
I1
sS'was'
p783
I9
sS'comprehensible.\n'
p784
I1
sS'becoming'
p785
I1
sS'for.\n'
p786
I1
sS'but'
p787
I13
sS'idea'
p788
I2
sS'trying'
p789
I1
sS'with'
p790
I3
sS'made'
p791
I2
sS'applying'
p792
I1
sS'intuitive'
p793
I1
sS"wasn't"
p794
I2
sS'physicist,'
p795
I1
sS'up'
p796
I1
sS'principles,'
p797
I1
sS'grasp'
p798
I1
sS'problem'
p799
I1
sS'detailed'
p800
I1
sS'acids'
p801
I1
sS'videos'
p802
I2
sS'otherwise!\n'
p803
I1
sS'articulating'
p804
I2
sS'\nAfter'
p805
I1
sS'scratch.'
p806
I1
sS'an'
p807
I4
sS'To'
p808
I1
sS'as'
p809
I5
sS'at'
p810
I5
sS'check'
p811
I1
sS'\nWhen'
p812
I1
sS'again'
p813
I1
sS'Technique.'
p814
I1
sS'Practice'
p815
I1
sS'no'
p816
I1
sS'when'
p817
I4
sS'detail'
p818
I1
sS'configurations,'
p819
I1
sS'details'
p820
I1
sS'Technique:'
p821
I1
sS'you'
p822
I16
sS'out'
p823
I1
sS'\n'
p824
I2
sS'neutralize,'
p825
I1
sS'explaining'
p826
I1
sS'students'
p827
I3
sS'surprise'
p828
I2
sS'class'
p829
I2
sS'important'
p830
I1
sS'subjects.'
p831
I1
sS'included'
p832
I1
sS'Making'
p833
I1
sS'inspiration'
p834
I1
sS'bases'
p835
I1
sS'required'
p836
I1
sS'titration'
p837
I1
sS'\nAlthough'
p838
I1
sS'time'
p839
I1
sS'starting'
p840
I1
sS'having'
p841
I1
ssS'label'
p842
S'GENUINE'
p843
sa(dp844
S'word_count'
p845
(dp846
S'and'
p847
I1
sS'opened!'
p848
I1
sS'Hi,Welcome'
p849
I1
sS'kill'
p850
I1
sS'Online'
p851
I1
sS'cialis!'
p852
I1
sS'best'
p853
I1
sS'for'
p854
I1
sS'\n\nNew'
p855
I1
sS'been'
p856
I1
sS'pharmacy'
p857
I1
sS'to'
p858
I2
sS'viagra'
p859
I1
sS'online'
p860
I1
sS'has'
p861
I1
sS'store'
p862
I1
sS'\n\nwww.rxdrugstorepro.com\n\n'
p863
I1
sS'price'
p864
I1
sS'moment'
p865
I1
sS'---------------------'
p866
I1
sS'The'
p867
I1
sS'by'
p868
I1
sS'1mpoteence'
p869
I1
sS'Va'
p870
I1
sS'splendid'
p871
I1
sS'\n\nCatch'
p872
I1
sS'\n\n---------------------------------------------------------------------------'
p873
I1
sS'the'
p874
I1
sS'Pharmacy!'
p875
I1
ssS'label'
p876
S'SPAM'
p877
sa(dp878
S'word_count'
p879
(dp880
g4
I20
sS'email,'
p881
I1
sS'________________________________\n>\n>'
p882
I2
sS'all'
p883
I2
sS'Jan'
p884
I2
sS'specific\nthan'
p885
I1
sS'planning'
p886
I2
sS'format=flowed\n\nHi'
p887
I1
sS'follow'
p888
I2
sS'line'
p889
I1
sS'We'
p890
I2
sS'send'
p891
I1
sS'to'
p892
I13
sS'World'
p893
I1
sS'2.'
p894
I1
sS'submissions'
p895
I1
sS'2012'
p896
I2
sS'1\nDate:'
p897
I1
sS'good'
p898
I4
sS'Vicky,\n\nYah,'
p899
I1
sS'get'
p900
I2
sS'AOD.'
p901
I2
sS'visit\n'
p902
I1
sS'Days'
p903
I4
sS'year.'
p904
I2
sS'Topics:\n\n'
p905
I1
sS'intouch'
p906
I2
sS"'help'"
p907
I1
sS'community-kenya-request@lists.mozilla.org\n\nYou'
p908
I1
sS"I'm"
p909
I1
sS'Wafula'
p910
I4
sS'iHub'
p911
I1
sS'<xelawafs@yahoo.com>\nTo:'
p912
I1
sS'edit'
p913
I1
sS'<vickyjr@mozilla-kenya.org>\nCc:'
p914
I1
sS'Alex\n>\n>\n>'
p915
I2
sS'list'
p916
I3
sS'form,'
p917
I2
sS'that\n>'
p918
I2
sS'pc.'
p919
I2
sS'Thanks'
p920
I6
sS'<xelawafs@yahoo.com>,\n'
p921
I1
sS'00:11:11'
p922
I1
sS'Kenya'
p923
I1
sS'Subject'
p924
I1
sS'body'
p925
I1
sS'twitter'
p926
I2
sS'at\n'
p927
I1
sS'<1325837471.53345.YahooMailNeo@web45102.mail.sp1.yahoo.com>\nContent-Type:'
p928
I1
sS'Send'
p929
I1
sS'are'
p930
I4
sS'10:30:17'
p931
I1
sS'message'
p932
I1
sS'subject'
p933
I1
sS'06'
p934
I1
sS'and'
p935
I2
sS'for'
p936
I10
sS'managing'
p937
I1
sS'<vickyjr@mozilla-kenya.org>\nTo:'
p938
I1
sS'please'
p939
I1
sS'Web,'
p940
I1
sS'access'
p941
I4
sS'I'
p942
I8
sS'adde'
p943
I2
sS'month.\n\n--Alex\n\n\n\n________________________________\n\nHi'
p944
I1
sS'internet'
p945
I2
sS'ever'
p946
I2
sS'Re:'
p947
I4
sS'be'
p948
I8
sS'who'
p949
I4
sS'vickyjr'
p950
I2
sS'Wafula)\n\n\n----------------------------------------------------------------------\n\nMessage:'
p951
I1
sS'community-kenya@lists.mozilla.org\n\nTo'
p952
I1
sS'Alex.\n\nWhen'
p953
I2
sS"everything.\n\n\n@vickyjr.\nThat's"
p954
I2
sS'surely'
p955
I2
sS'meet'
p956
I2
sS'active'
p957
I2
sS'care'
p958
I2
sS'on'
p959
I3
sS'of'
p960
I5
sS'coz'
p961
I2
sS'https://lists.mozilla.org/listinfo/community-kenya\nor,'
p962
I1
sS'(AOD)\nMessage-ID:'
p963
I1
sS'<community-kenya@lists.mozilla.org>\nSubject:'
p964
I1
sS'+0300\nFrom:'
p965
I1
sS'or'
p966
I2
sS'Contents'
p967
I1
sS'Folks\n>\n\n\n\n------------------------------\n\nMessage:'
p968
I1
sS'via'
p969
I4
sS'myself.'
p970
I2
sS'community-kenya@lists.mozilla.org\nSubject:'
p971
I1
sS'number'
p972
I2
sS'subscribe'
p973
I1
sS'volunteered'
p974
I2
sS'your'
p975
I1
sS'start-up.'
p976
I2
sS'community-kenya-owner@lists.mozilla.org\n\nWhen'
p977
I1
sS'would'
p978
I2
sS'Mozilla'
p979
I1
sS'avail'
p980
I2
sS'start'
p981
I2
sS'4:34'
p982
I2
sS'6'
p983
I1
sS'meeting'
p984
I2
sS'(AOD)\nMessage-ID:\n'
p985
I1
sS'more'
p986
I1
sS'2012?.'
p987
I2
sS'Digest,'
p988
I1
sS'form'
p989
I2
sS'appreciated.\n>\n>'
p990
I2
sS'text/plain;'
p991
I2
sS'to\n'
p992
I2
sS'unsubscribe'
p993
I1
sS'PM,'
p994
I2
sS'Folks\n>\n\n------------------------------\n\n_______________________________________________\ncommunity-kenya'
p995
I1
sS'with'
p996
I1
sS'than'
p997
I2
sS'those'
p998
I2
sS'me'
p999
I4
sS'3\n**********************************************\n\n'
p1000
I1
sS'this'
p1001
I3
sS'work'
p1002
I2
sS'Africa'
p1003
I4
sS'up'
p1004
I2
sS'will'
p1005
I4
sS'Vol'
p1006
I1
sS'Fri,'
p1007
I2
sS'can'
p1008
I3
sS'17,'
p1009
I1
sS'\nthose'
p1010
I2
sS'Open'
p1011
I4
sS'charset=us-ascii\n\nHey'
p1012
I1
sS'1.'
p1013
I1
sS'-0800'
p1014
I1
sS'replying,'
p1015
I1
sS'is'
p1016
I1
sS'it'
p1017
I1
sS'digest..."\n\n\nToday\'s'
p1018
I1
sS'cant'
p1019
I2
sS'"Re:'
p1020
I1
sS'have'
p1021
I2
sS'in'
p1022
I2
sS'Issue'
p1023
I1
sS'if'
p1024
I2
sS'speaking'
p1025
I1
sS'end'
p1026
I1
sS'suggest'
p1027
I2
sS'meetup'
p1028
I1
sS'(vickyjr)\n'
p1029
I1
sS'wrote:\n>'
p1030
I2
sS'<4F06A309.4030906@mozilla-kenya.org>\nContent-Type:'
p1031
I1
sS'you'
p1032
I2
sS'updates.\n\n\n\nOn'
p1033
I2
sS'Wide'
p1034
I1
sS'2\nDate:'
p1035
I1
sS'Alex'
p1036
I4
sS'\ngood'
p1037
I2
sS'(PST)\nFrom:'
p1038
I1
sS'assist'
p1039
I2
sS'reach'
p1040
I1
sS'list\ncommunity-kenya@lists.mozilla.org\nhttps://lists.mozilla.org/listinfo/community-kenya\n\n\nEnd'
p1041
I1
sS'Will'
p1042
I2
sS'charset=ISO-8859-1;'
p1043
I1
sS'(AOD)'
p1044
I2
sS'plan'
p1045
I2
sS'guys'
p1046
I2
sS'a'
p1047
I10
sS'community-kenya'
p1048
I3
sS'i'
p1049
I4
sS'cannot\n>'
p1050
I2
sS'soon.\n>\n>'
p1051
I2
sS'(Alex'
p1052
I1
sS'1/5/2012'
p1053
I2
sS'person'
p1054
I1
sS'Tosh'
p1055
I1
sS'so'
p1056
I3
sS'pliz'
p1057
I2
sS'at'
p1058
I1
sS'the'
p1059
I7
sS'mailing'
p1060
I3
sS'having'
p1061
I1
sS'Alex,\n>\n>'
p1062
I2
ssS'label'
p1063
g282
sa(dp1064
S'word_count'
p1065
(dp1066
S'All'
p1067
I1
sS'www.rxdrugstorepro.com,'
p1068
I1
sS'Copyright'
p1069
I1
sS'Rights'
p1070
I1
sS'Online'
p1071
I1
sS'here'
p1072
I1
sS'Pharmacy'
p1073
I1
sS'Reserved.\n\n'
p1074
I1
sS'to'
p1075
I1
sS'\n\n\xc2\xa9'
p1076
I1
sS'2007-2011.'
p1077
I1
sS'Click'
p1078
I1
ssS'label'
p1079
g877
sa(dp1080
S'word_count'
p1081
(dp1082
g4
I3
sS'all'
p1083
I1
sS'through'
p1084
I1
sS'Suite'
p1085
I1
sS'community?\nSincerely,\nAmy'
p1086
I1
sS'inspiring'
p1087
I1
sS'emails'
p1088
I2
sS'to'
p1089
I6
sS'depressed\nJoin'
p1090
I1
sS'Facebook'
p1091
I1
sS'has'
p1092
I1
sS'hope'
p1093
I1
sS'year.'
p1094
I1
sS'120\nCampbell,'
p1095
I1
sS'contact@gmomail.org.\n\nGlobal'
p1096
I1
sS'Or'
p1097
I1
sS'receiving'
p1098
I1
sS'Just'
p1099
I1
sS'Ave.,'
p1100
I1
sS'Lord\xe2\x80\x99s'
p1101
I2
sS'95008\n'
p1102
I1
sS'because'
p1103
I1
sS'Favor'
p1104
I1
sS'are'
p1105
I1
sS'Favor,'
p1106
I1
sS'our'
p1107
I1
sS'4stepstogod.mobi.'
p1108
I1
sS'click'
p1109
I1
sS'what'
p1110
I1
sS'preferences'
p1111
I1
sS'for'
p1112
I6
sS'visiting'
p1113
I1
sS'Hamilton'
p1114
I1
sS'Isaiah'
p1115
I1
sS'email'
p1116
I4
sS'can'
p1117
I2
sS'by'
p1118
I1
sS'on'
p1119
I1
sS'great'
p1120
I1
sS'receive'
p1121
I1
sS'of'
p1122
I3
sS"'rachkenmail@yahoo.com'."
p1123
I1
sS'experience'
p1124
I2
sS'Jesus'
p1125
I1
sS'or'
p1126
I1
sS'and'
p1127
I1
sS'61'
p1128
I1
sS'message'
p1129
I1
sS'your'
p1130
I2
sS'from'
p1131
I4
sS'subscribed'
p1132
I1
sS'describes'
p1133
I1
sS'Unsubscribe'
p1134
I1
sS'God,'
p1135
I1
sS'God'
p1136
I2
sS'was'
p1137
I1
sS'series,'
p1138
I1
sS'something'
p1139
I1
sS'2012?'
p1140
I1
sS'captive\nJoy'
p1141
I1
sS'2012.'
p1142
I1
sS'with'
p1143
I1
sS'join'
p1144
I2
sS'this'
p1145
I3
sS'\xe2\x80\x9cLike\xe2\x80\x9d'
p1146
I1
sS'us'
p1147
I4
sS'will'
p1148
I1
sS'stories'
p1149
I1
sS'sent'
p1150
I1
sS'Year'
p1151
I2
sS'at'
p1152
I2
sS'page.'
p1153
I1
sS'promises'
p1154
I1
sS'\n\nDo'
p1155
I1
sS'Media'
p1156
I1
sS'it'
p1157
I1
sS'encouragement'
p1158
I1
sS'as'
p1159
I1
sS'GodLife\n\n\nThis'
p1160
I1
sS'broken-hearted\nFreedom'
p1161
I1
sS'have'
p1162
I1
sS'in'
p1163
I1
sS'You'
p1164
I2
sS'group.\nGod'
p1165
I1
sS'do.'
p1166
I1
sS'believers,'
p1167
I1
sS'website,'
p1168
I1
sS'amazing'
p1169
I1
sS'other'
p1170
I1
sS'you'
p1171
I6
sS'E'
p1172
I1
sS'bring:\nComfort'
p1173
I1
sS'time'
p1174
I1
sS'does.'
p1175
I1
sS'Will'
p1176
I1
sS'The'
p1177
I1
sS'Outreach\n910'
p1178
I1
sS'a'
p1179
I1
sS'CA,'
p1180
I1
sS'the'
p1181
I8
sS'came'
p1182
I1
ssS'label'
p1183
g843
sa(dp1184
S'word_count'
p1185
(dp1186
S'wie'
p1187
I1
sS'des'
p1188
I1
sS'Poker,'
p1189
I1
sS'stehen'
p1190
I1
sS'450'
p1191
I1
sS'von'
p1192
I1
sS'Slots,'
p1193
I1
sS'Genuss'
p1194
I1
sS'im'
p1195
I2
sS'Lieblingsspiel'
p1196
I1
sS'Sie'
p1197
I6
sS'in'
p1198
I1
sS'einen'
p1199
I1
sS'zu'
p1200
I2
sS'Ringe'
p1201
I1
sS'kommen'
p1202
I1
sS'es'
p1203
I1
sS'absolute'
p1204
I1
sS'sowie'
p1205
I1
sS'Rewards'
p1206
I3
sS'Willkommensbonusses.'
p1207
I1
sS'Bonus'
p1208
I1
sS'Willkommensbonus'
p1209
I1
sS'Ihnen'
p1210
I1
sS'-'
p1211
I2
sS'diesen'
p1212
I1
sS'1'
p1213
I1
sS'noch'
p1214
I1
sS'unz\xc3\xa4hlige'
p1215
I1
sS'sich'
p1216
I1
sS'DAS'
p1217
I1
sS'Herr'
p1218
I1
sS'Kn\xc3\xbcller'
p1219
I1
sS'Ruby'
p1220
I3
sS'Echtgeld-Konto'
p1221
I1
sS'Siegesgef\xc3\xbchle'
p1222
I1
sS'Jack'
p1223
I1
sS'viele'
p1224
I1
sS'\xc3\xbcber'
p1225
I1
sS'Bei'
p1226
I1
sS'Viel'
p1227
I1
sS'Wert'
p1228
I1
sS'Spielen'
p1229
I1
sS'750EUR.\n\nNutzen'
p1230
I1
sS'Casino'
p1231
I2
sS'bevor.\n\nIm'
p1232
I1
sS'finden:'
p1233
I1
sS'gigantischen'
p1234
I1
sS'heute'
p1235
I2
sS'Spa\xc3\x9f!\n\nwww.bingorubyworld.at/de/\n\n\n'
p1236
I1
sS'Tomb'
p1237
I1
sS'bis'
p1238
I1
sS'Stunden'
p1239
I1
sS'registrieren'
p1240
I1
sS'attraktiven'
p1241
I1
sS'darunter'
p1242
I1
sS'Raider'
p1243
I1
sS'Nr.'
p1244
I1
sS'Auswahl'
p1245
I1
sS'spielen'
p1246
I1
sS'Ihr'
p1247
I1
sS'Video'
p1248
I1
sS'der'
p1249
I1
sS'gewinnbringende'
p1250
I1
sS'gibt'
p1251
I1
sS'ist'
p1252
I1
sS'um'
p1253
I1
sS'holen'
p1254
I1
sS'\nGenie\xc3\x9fen'
p1255
I1
sS'und'
p1256
I5
sS'Roulette.'
p1257
I1
sS'den'
p1258
I1
sS'unterhaltsame'
p1259
I1
sS'Black'
p1260
I1
sS'zur'
p1261
I1
sS'ein'
p1262
I1
ssS'label'
p1263
g145
sa(dp1264
S'word_count'
p1265
(dp1266
g4
I5
sS'notifications?\nDownload'
p1267
I1
sS'follow'
p1268
I3
sS'inquiries'
p1269
I1
sS'Designer'
p1270
I1
sS'to'
p1271
I5
sS'\n\nAndrew'
p1272
I1
sS'sent'
p1273
I1
sS'do'
p1274
I1
sS'\n'
p1275
I1
sS'including:\n'
p1276
I1
sS'@mu2a,'
p1277
I1
sS'address.'
p1278
I1
sS'Infused'
p1279
I1
sS'not'
p1280
I2
sS'\xc2\xbb\nIf'
p1281
I1
sS'now'
p1282
I1
sS'emails'
p1283
I1
sS'settings'
p1284
I1
sS'@ProfNandaa\n\nView'
p1285
I1
sS'|'
p1286
I3
sS'MDGs.'
p1287
I1
sS'profile\nWant'
p1288
I1
sS'Kenya\n348\nTweets\t'
p1289
I1
sS'For'
p1290
I1
sS'unmonitored'
p1291
I1
sS'related'
p1292
I1
sS'\t\nmu2a'
p1293
I1
sS'message;'
p1294
I1
sS'for'
p1295
I2
sS'notification'
p1296
I1
sS'please'
p1297
I1
sS'reply'
p1298
I1
sS'@BMutunga'
p1299
I1
sS'email'
p1300
I4
sS'Marketing,'
p1301
I1
sS'This'
p1302
I1
sS'change'
p1303
I1
sS'UX'
p1304
I1
sS'receive'
p1305
I2
sS'of'
p1306
I1
sS'Mutua'
p1307
I1
sS'or'
p1308
I2
sS'love'
p1309
I1
sS'@mu2a'
p1310
I1
sS'manage'
p1311
I1
sS'Please'
p1312
I1
sS'Gamification'
p1313
I1
sS'Support.\n'
p1314
I1
sS'message'
p1315
I1
sS'your'
p1316
I4
sS"you'd"
p1317
I1
sS'use'
p1318
I1
sS'from'
p1319
I2
sS'service'
p1320
I1
sS'&'
p1321
I2
sS'support'
p1322
I1
sS'visit'
p1323
I2
sS'notifications.'
p1324
I1
sS'was'
p1325
I1
sS'account,'
p1326
I1
sS'phone'
p1327
I1
sS'unsubscribe'
p1328
I1
sS'an'
p1329
I1
sS'with'
p1330
I2
sS'account'
p1331
I1
sS'this'
p1332
I1
sS'Twitter'
p1333
I4
sS'us'
p1334
I1
sS'can'
p1335
I1
sS'following'
p1336
I1
sS'Technologist'
p1337
I1
sS'Mutua\nWeb'
p1338
I1
sS'is'
p1339
I2
sS'it'
p1340
I1
sS'general'
p1341
I1
sS'To'
p1342
I1
sS'at'
p1343
I1
sS'Digital'
p1344
I1
sS'Got'
p1345
I1
sS'Twitter.'
p1346
I1
sS'Twitter,'
p1347
I1
sS'rather'
p1348
I1
sS'preferences,'
p1349
I1
sS'Andrew'
p1350
I1
sS'other'
p1351
I1
sS'5'
p1352
I1
sS'Student'
p1353
I1
sS'you'
p1354
I2
sS'users'
p1355
I1
sS'Branding,'
p1356
I1
sS'who'
p1357
I1
sS'resubscribe'
p1358
I1
sS'@victorkubwa'
p1359
I1
sS'143\nFollowers\nYou'
p1360
I1
sS'a'
p1361
I1
sS'@mu2a\xe2\x80\x99s'
p1362
I1
sS'mobile'
p1363
I1
sS'Imagination.\nNairobi,'
p1364
I1
sS'request'
p1365
I1
sS'270\nFollowing\t'
p1366
I1
sS'(@krmboya).\n'
p1367
I1
sS'immediately.'
p1368
I1
sS'@UoN'
p1369
I1
ssS'label'
p1370
g843
sa(dp1371
S'word_count'
p1372
(dp1373
S'Ivory'
p1374
I1
sS'pounds,'
p1375
I1
sS'prize,'
p1376
I1
sS'lottery,'
p1377
I1
sS'Coast.\n'
p1378
I1
sS'details,'
p1379
I1
sS'contact'
p1380
I1
sS'london,'
p1381
I1
ssS'label'
p1382
g145
sa(dp1383
S'word_count'
p1384
(dp1385
S'and'
p1386
I1
sS'saying'
p1387
I1
sS'work'
p1388
I1
sS'old'
p1389
I1
sS'just'
p1390
I1
sS'sincerely,\n\nyour'
p1391
I1
sS'God'
p1392
I1
sS'is'
p1393
I1
sS'am'
p1394
I2
sS'it'
p1395
I2
sS'this'
p1396
I2
sS'sure'
p1397
I1
sS'you.\n\nYours'
p1398
I1
sS'are'
p1399
I2
sS'in'
p1400
I5
sS'our'
p1401
I1
sS'left.'
p1402
I1
sS'trust'
p1403
I1
sS'nowadays'
p1404
I1
sS'living'
p1405
I1
sS'holiday.\n\nMay'
p1406
I1
sS'thank'
p1407
I1
sS'for'
p1408
I2
sS'visiting'
p1409
I1
sS'hi,'
p1410
I1
sS'neck'
p1411
I1
sS'-'
p1412
I1
sS'two'
p1413
I1
sS'Pocket'
p1414
I1
sS'to'
p1415
I1
sS'ASAP!\n'
p1416
I1
sS"we're"
p1417
I1
sS'pretty'
p1418
I1
sS'money'
p1419
I1
sS'you'
p1420
I4
sS'was'
p1421
I2
sS'abudantly,'
p1422
I1
sS'luxury'
p1423
I1
sS'revision,'
p1424
I1
sS'then'
p1425
I1
sS'good'
p1426
I1
sS'himself.\n\nAnyway,'
p1427
I1
sS'that'
p1428
I1
sS'may'
p1429
I1
sS'Up'
p1430
I1
sS'assignments,'
p1431
I1
sS'nephew.\n\n\nPS:'
p1432
I1
sS'hotel,'
p1433
I1
sS'exams.'
p1434
I1
sS'every'
p1435
I1
sS'here'
p1436
I1
sS'coming'
p1437
I1
sS'sit'
p1438
I1
sS'ok'
p1439
I1
sS'be'
p1440
I1
sS'Uncle,\n\nHow'
p1441
I1
sS'weeks'
p1442
I1
sS'doing?'
p1443
I1
sS'man'
p1444
I1
sS'a'
p1445
I1
sS'school'
p1446
I1
sS'fine.'
p1447
I1
sS'I'
p1448
I5
sS'like'
p1449
I2
sS'Just'
p1450
I1
sS'enjoyed.'
p1451
I1
sS'projects,'
p1452
I1
sS'CATs,'
p1453
I1
sS'days'
p1454
I1
sS'bless'
p1455
I1
sS"wasn't"
p1456
I1
sS'Dear'
p1457
I1
sS'about'
p1458
I1
sS'the'
p1459
I2
sS'Campus'
p1460
I1
sS'Nairobi.\n\nCurrently'
p1461
I1
ssS'label'
p1462
g843
sa(dp1463
S'word_count'
p1464
(dp1465
g4
I46
sS'ceases'
p1466
I1
sS'among'
p1467
I1
sS'being'
p1468
I1
sS'Office,'
p1469
I1
sS'663'
p1470
I1
sS'results'
p1471
I1
sS'years'
p1472
I1
sS'four'
p1473
I1
sS'Care'
p1474
I1
sS'\nFor'
p1475
I1
sS'Kenya\n\xc2\xb7'
p1476
I3
sS'Kenyan'
p1477
I1
sS'Public'
p1478
I2
sS'MUST'
p1479
I2
sS'discipline'
p1480
I1
sS'Foundation'
p1481
I3
sS'KCPE'
p1482
I2
sS'Jobs'
p1483
I3
sS'Business'
p1484
I3
sS'eligible'
p1485
I1
sS'Brand'
p1486
I1
sS'Auditing;'
p1487
I1
sS'should'
p1488
I1
sS'forms'
p1489
I1
sS'to'
p1490
I5
sS'certified\n\n\nYou'
p1491
I1
sS'Kenyatta'
p1492
I4
sS'marks'
p1493
I1
sS'units.'
p1494
I1
sS'Executives'
p1495
I1
sS'2011'
p1496
I1
sS'remaining'
p1497
I1
sS'sent'
p1498
I1
sS'2012'
p1499
I1
sS'0721'
p1500
I1
sS'good'
p1501
I1
sS'Director,\nThe'
p1502
I1
sS'1024'
p1503
I1
sS'Nairobi.\nP.O.'
p1504
I1
sS'period'
p1505
I2
sS'Project'
p1506
I1
sS'2012\nThe'
p1507
I1
sS'qualified'
p1508
I1
sS'(K)\n\xc2\xb7'
p1509
I1
sS'Resource;'
p1510
I1
sS'Entrepreneurship;'
p1511
I1
sS'above.\n\niii.'
p1512
I1
sS'Behaviour;'
p1513
I1
sS'now'
p1514
I1
sS'continued'
p1515
I1
sS'System;'
p1516
I1
sS'secondary'
p1517
I1
sS'Area,'
p1518
I1
sS'Strategy;'
p1519
I1
sS'Supply'
p1520
I1
sS'admitted'
p1521
I1
sS'Recruitment'
p1522
I1
sS'benefit'
p1523
I1
sS'BOOKS'
p1524
I1
sS'offices'
p1525
I1
sS'COVAW'
p1526
I1
sS'background.\n\nApplication'
p1527
I1
sS'Kenya'
p1528
I1
sS'citizens.\nii.'
p1529
I1
sS'Theory;'
p1530
I2
sS'Box'
p1531
I1
sS'Management'
p1532
I2
sS'financial'
p1533
I1
sS'Wealth'
p1534
I1
sS'doing'
p1535
I1
sS'schools.\n\niv.'
p1536
I1
sS'NGO'
p1537
I1
sS'orphan'
p1538
I2
sS'E-books'
p1539
I1
sS'Insurance;'
p1540
I1
sS'background.\n\nvi.'
p1541
I1
sS'books'
p1542
I1
sS'are'
p1543
I2
sS'complete'
p1544
I1
sS'year'
p1545
I4
sS'our'
p1546
I1
sS'click'
p1547
I1
sS'(www.jkf.co.ke)'
p1548
I1
sS'delivered'
p1549
I1
sS'Risk'
p1550
I1
sS'for'
p1551
I9
sS'Road,'
p1552
I1
sS'Practice'
p1553
I1
sS'filling'
p1554
I1
sS'criteria;\n\ni.'
p1555
I1
sS'sponsorship'
p1556
I2
sS'Job'
p1557
I1
sS'student\xe2\x80\x99s'
p1558
I1
sS'Francis'
p1559
I1
sS'public'
p1560
I2
sS'Nairobi.\n\nEmail:'
p1561
I1
sS'Projects'
p1562
I1
sS'francis@safarisoftsolutions.com\n\n'
p1563
I1
sS'be'
p1564
I4
sS'Unit)'
p1565
I1
sS'\nThe'
p1566
I1
sS'Be'
p1567
I4
sS'initially'
p1568
I1
sS'2008'
p1569
I1
sS'Counter'
p1570
I1
sS'or\nuntil'
p1571
I1
sS'Marketing;'
p1572
I1
sS'Directors'
p1573
I1
sS'Contact'
p1574
I1
sS'9001'
p1575
I1
sS'address'
p1576
I1
sS'Leadership;'
p1577
I1
sS'by'
p1578
I2
sS'certified'
p1579
I1
sS'scholarships.\n\nApplicants'
p1580
I1
sS'obtained'
p1581
I1
sS'on'
p1582
I4
sS'sister'
p1583
I1
sS'10th'
p1584
I1
sS'last'
p1585
I1
sS'Chain'
p1586
I1
sS'Jomo'
p1587
I4
sS'scholarships@jomokenyattaf.com;'
p1588
I1
sS'of'
p1589
I10
sS'Scholarships\n'
p1590
I1
sS'&'
p1591
I4
sS'\nEnterprise'
p1592
I1
sS'(Jobs'
p1593
I1
sS'Evidence'
p1594
I1
sS'Market'
p1595
I1
sS'Human'
p1596
I1
sS'form:\n\n'
p1597
I1
sS'Organizational'
p1598
I2
sS'period.\n\nIn'
p1599
I1
sS'invites'
p1600
I1
sS'comes'
p1601
I1
sS'Finance;'
p1602
I3
sS'www.kenyanvacancies.com'
p1603
I1
sS'Mathematics;'
p1604
I1
sS'Scholarships'
p1605
I1
sS'Skills;'
p1606
I1
sS'00100,'
p1607
I1
sS'Managing'
p1608
I1
sS'DVD'
p1609
I1
sS'primary'
p1610
I1
sS'Relations'
p1611
I1
sS'one'
p1612
I1
sS'ISO'
p1613
I1
sS'others.\n'
p1614
I1
sS'determine'
p1615
I1
sS'Law;'
p1616
I1
sS'Performance'
p1617
I1
sS'apply'
p1618
I1
sS'year\n2012\xe2\x80\x99'
p1619
I1
sS'School.\n\nApplication'
p1620
I1
sS'given'
p1621
I1
sS'or'
p1622
I4
sS'from'
p1623
I6
sS'REFERENCE'
p1624
I1
sS'Turbi'
p1625
I1
sS'books).'
p1626
I1
sS'support'
p1627
I2
sS'*'
p1628
I2
sS'available'
p1629
I1
sS'least'
p1630
I1
sS'discipline.\n\nv.'
p1631
I1
sS'beneficiary'
p1632
I1
sS'Operations'
p1633
I2
sS'2'
p1634
I1
sS'all)\nLinkWithin\nLabels:'
p1635
I1
sS'JKF'
p1636
I1
sS'Scholarship'
p1637
I1
sS'like:\n\xc2\xb7'
p1638
I1
sS'more'
p1639
I2
sS'website'
p1640
I2
sS'Sankara'
p1641
I1
sS'One'
p1642
I2
sS'slip.\n'
p1643
I1
sS'\n\n\n--'
p1644
I1
sS'form'
p1645
I1
sS'Year'
p1646
I1
sS'successful'
p1647
I1
sS'January'
p1648
I1
sS'hereby'
p1649
I1
sS'award'
p1650
I1
sS'Culture;'
p1651
I1
sS'link'
p1652
I1
sS'basis'
p1653
I1
sS'Research;'
p1654
I3
sS'copy'
p1655
I1
sS'Consumer'
p1656
I1
sS'Nairobi'
p1657
I2
sS'circumstances'
p1658
I1
sS'info'
p1659
I1
sS'\xe2\x80\x98The'
p1660
I1
sS'Industrial'
p1661
I1
sS'Foundation,'
p1662
I1
sS'Application'
p1663
I1
sS'this'
p1664
I1
sS'might'
p1665
I1
sS'also'
p1666
I1
sS'suitably'
p1667
I1
sS'attached'
p1668
I1
sS'Sales'
p1669
I2
sS'Educator'
p1670
I1
sS'will'
p1671
I4
sS'below'
p1672
I1
sS'Change'
p1673
I2
sS'visit'
p1674
I1
sS'following'
p1675
I3
sS'meet'
p1676
I1
sS'Secondary'
p1677
I1
sS'Special'
p1678
I1
sS'Chege'
p1679
I1
sS'and'
p1680
I6
sS'Information'
p1681
I1
sS'Creation;'
p1682
I1
sS'Statistics;'
p1683
I1
sS'school.\n\nDuration\n\nThe'
p1684
I1
sS'can'
p1685
I2
sS'is'
p1686
I1
sS'in'
p1687
I9
sS'record.\n\nThe'
p1688
I1
sS'package'
p1689
I1
sS'WASH'
p1690
I1
sS'Clinical'
p1691
I1
sS'aggregate,'
p1692
I1
sS'have'
p1693
I1
sS'International'
p1694
I1
sS'an'
p1695
I3
sS'education'
p1696
I1
sS'sat'
p1697
I1
sS'\nAre'
p1698
I1
sS'Foundation\xe2\x80\x99s'
p1699
I1
sS'Board'
p1700
I2
sS'pupils'
p1701
I1
sS'3,000.\n'
p1702
I1
sS':'
p1703
I1
sS'-'
p1704
I1
sS'MBA'
p1705
I1
sS'Banking;'
p1706
I1
sS'Preference'
p1707
I1
sS'performance,'
p1708
I1
sS'Investments'
p1709
I1
sS'info@jomokenyattaf.com\n\nWe'
p1710
I1
sS'you'
p1711
I1
sS'(Intensive'
p1712
I1
sS'Qualitative'
p1713
I1
sS'A'
p1714
I1
sS'Real'
p1715
I1
sS'Communication'
p1716
I1
sS'(PDF'
p1717
I1
sS'students'
p1718
I2
sS'County,'
p1719
I1
sS'2012:\n\nThe'
p1720
I1
sS'Economics;'
p1721
I1
sS'collection'
p1722
I1
sS'hand'
p1723
I1
sS'disadvantaged'
p1724
I2
sS'applications'
p1725
I1
sS'vacancies.\nYou'
p1726
I1
sS'documents'
p1727
I2
sS'Massive'
p1728
I1
sS'student'
p1729
I1
sS'Accounting'
p1730
I1
sS'countrywide.\n\nThe'
p1731
I1
sS'The'
p1732
I3
sS'\xe2\x80\x94'
p1733
I1
sS'Corporate'
p1734
I1
sS'the'
p1735
I15
sS'a'
p1736
I9
sS'208;'
p1737
I1
sS'Field'
p1738
I1
sS'PACKAGE,'
p1739
I1
sS'Form'
p1740
I2
sS'Estate'
p1741
I1
sS'(20)'
p1742
I1
sS'Procedure\nInterested'
p1743
I1
sS'Management;'
p1744
I8
sS'Plan;'
p1745
I1
sS'Investment'
p1746
I1
sS'Ksh.'
p1747
I1
sS'academic'
p1748
I3
sS'Manager'
p1749
I2
sS'Cost'
p1750
I2
sS'MBA?\n\nWe'
p1751
I1
sS'Have'
p1752
I1
sS'350'
p1753
I1
sS'at'
p1754
I1
sS'Marsabit'
p1755
I1
sS'applicants'
p1756
I1
sS'application'
p1757
I2
sS'30533'
p1758
I1
sS'scholarship'
p1759
I1
ssS'label'
p1760
S'SPAM'
p1761
sa(dp1762
S'word_count'
p1763
(dp1764
g4
I2
sS'all'
p1765
I2
sS'www.pastorbirai.com\n'
p1766
I1
sS'consider'
p1767
I1
sS'Mathematics;'
p1768
I1
sS'663'
p1769
I1
sS'day.\n\nIn'
p1770
I1
sS'touch'
p1771
I1
sS'find'
p1772
I2
sS'forget'
p1773
I1
sS'busy'
p1774
I1
sS'Business'
p1775
I3
sS'pray'
p1776
I1
sS'with'
p1777
I3
sS'Brand'
p1778
I1
sS'Auditing;'
p1779
I1
sS'had'
p1780
I1
sS'should'
p1781
I1
sS'(PK'
p1782
I1
sS'to'
p1783
I8
sS'has'
p1784
I2
sS'might'
p1785
I1
sS'Change'
p1786
I2
sS'meant'
p1787
I1
sS'then'
p1788
I2
sS'good'
p1789
I4
sS'get'
p1790
I1
sS'very'
p1791
I1
sS'Qualitative'
p1792
I1
sS'truly'
p1793
I1
sS'Project'
p1794
I1
sS'me'
p1795
I2
sS'know'
p1796
I1
sS'Resource;'
p1797
I1
sS'Entrepreneurship;'
p1798
I1
sS'not'
p1799
I2
sS'during'
p1800
I1
sS'Behaviour;'
p1801
I1
sS'Creation;'
p1802
I1
sS'System;'
p1803
I1
sS'I'
p1804
I8
sS'units.'
p1805
I1
sS'Operations'
p1806
I2
sS"we'll"
p1807
I1
sS'like'
p1808
I1
sS'Strategy;'
p1809
I1
sS'always'
p1810
I2
sS'sorry.'
p1811
I1
sS'BOOKS'
p1812
I1
sS'each'
p1813
I1
sS'Theory;'
p1814
I2
sS'knowing'
p1815
I2
sS'Management'
p1816
I2
sS'Wealth'
p1817
I1
sS'people'
p1818
I2
sS'doing'
p1819
I1
sS'some'
p1820
I2
sS'Sales'
p1821
I1
sS'go'
p1822
I1
sS'books'
p1823
I1
sS'connect'
p1824
I1
sS'a'
p1825
I4
sS'International'
p1826
I1
sS'best'
p1827
I1
sS'members\n\nHaving'
p1828
I1
sS'for'
p1829
I2
sS'forums'
p1830
I1
sS'memories'
p1831
I1
sS'please'
p1832
I2
sS'Public'
p1833
I1
sS'time,'
p1834
I1
sS'case'
p1835
I1
sS'leave,'
p1836
I1
sS'Francis'
p1837
I1
sS'francis@safarisoftsolutions.com\n\n'
p1838
I1
sS'be'
p1839
I1
sS'\nThe'
p1840
I1
sS'do'
p1841
I2
sS'here'
p1842
I1
sS'Marketing;'
p1843
I1
sS'Birai\nRead'
p1844
I1
sS'Skills;'
p1845
I1
sS'\n\n--'
p1846
I1
sS'Leadership;'
p1847
I1
sS'come'
p1848
I1
sS'Investments'
p1849
I1
sS'E-books'
p1850
I1
sS'on'
p1851
I1
sS'great'
p1852
I1
sS'forum'
p1853
I1
sS"y'all."
p1854
I1
sS'of'
p1855
I4
sS'&'
p1856
I5
sS'Contact'
p1857
I1
sS'way.'
p1858
I1
sS'Human'
p1859
I1
sS'Economics;'
p1860
I1
sS'Organizational'
p1861
I2
sS'honor'
p1862
I1
sS'comes'
p1863
I1
sS'lay'
p1864
I1
sS'Even'
p1865
I1
sS'among'
p1866
I1
sS'\nFor'
p1867
I1
sS'gone'
p1868
I1
sS'DVD'
p1869
I1
sS'Relations'
p1870
I1
sS'one'
p1871
I2
sS'down'
p1872
I1
sS'others.\n'
p1873
I1
sS'Law;'
p1874
I1
sS'tools'
p1875
I1
sS'you.\n\nPastor'
p1876
I1
sS'forums.\n\nI'
p1877
I1
sS'now,'
p1878
I1
sS'blog'
p1879
I2
sS'REFERENCE'
p1880
I1
sS'interacted'
p1881
I1
sS'books).'
p1882
I1
sS'My'
p1883
I1
sS'prayers'
p1884
I1
sS'\nAre'
p1885
I1
sS'two'
p1886
I2
sS'been'
p1887
I2
sS'anyone'
p1888
I1
sS'much'
p1889
I1
sS'too'
p1890
I1
sS'privilege'
p1891
I1
sS'was'
p1892
I1
sS'more'
p1893
I1
sS'you.'
p1894
I2
sS'shoulders'
p1895
I1
sS'privately'
p1896
I1
sS'complete'
p1897
I1
sS'that'
p1898
I8
sS'0721'
p1899
I1
sS'due'
p1900
I1
sS'but'
p1901
I1
sS'hurt'
p1902
I1
sS'way,'
p1903
I1
sS'known'
p1904
I1
sS'responsibilities.'
p1905
I1
sS'church.'
p1906
I1
sS'Consumer'
p1907
I1
sS'must'
p1908
I1
sS"I'll"
p1909
I2
sS'1024'
p1910
I1
sS'decided'
p1911
I1
sS'Chain'
p1912
I1
sS'Supply'
p1913
I1
sS'these'
p1914
I2
sS'3,000.\n'
p1915
I1
sS'package'
p1916
I1
sS'Insurance;'
p1917
I1
sS'will'
p1918
I1
sS'info'
p1919
I1
sS'prcanb@yahoo.com\n\nOnce'
p1920
I1
sS'visit'
p1921
I1
sS'following'
p1922
I1
sS'my'
p1923
I4
sS'Market'
p1924
I1
sS'Chege'
p1925
I1
sS'and'
p1926
I5
sS'Information'
p1927
I1
sS'YPS)'
p1928
I1
sS'www.pastorbirai.com\n\nIf'
p1929
I1
sS'have'
p1930
I5
sS'@'
p1931
I1
sS'is'
p1932
I1
sS'in'
p1933
I9
sS'am'
p1934
I1
sS'it'
p1935
I2
sS'an'
p1936
I1
sS'say'
p1937
I1
sS'miss'
p1938
I1
sS'at'
p1939
I1
sS'want'
p1940
I1
sS'Performance'
p1941
I1
sS'\nHello'
p1942
I1
sS'any'
p1943
I2
sS'as'
p1944
I1
sS'Real'
p1945
I1
sS'again'
p1946
I1
sS'do.'
p1947
I1
sS'do,'
p1948
I1
sS'MBA'
p1949
I1
sS'Banking;'
p1950
I1
sS'future,'
p1951
I1
sS'Hope'
p1952
I1
sS'you'
p1953
I7
sS'nice'
p1954
I1
sS'sure'
p1955
I1
sS'Communication'
p1956
I1
sS'again,'
p1957
I1
sS'may'
p1958
I1
sS'cherish'
p1959
I1
sS'reach'
p1960
I1
sS'collection'
p1961
I1
sS'Culture;'
p1962
I1
sS'wrong'
p1963
I2
sS'Statistics;'
p1964
I1
sS'Finance;'
p1965
I3
sS'are'
p1966
I2
sS'The'
p1967
I1
sS'Corporate'
p1968
I1
sS'thoughts'
p1969
I1
sS'Risk'
p1970
I1
sS'2'
p1971
I1
sS'208;'
p1972
I1
sS'All'
p1973
I2
sS'PACKAGE,'
p1974
I1
sS'rubbed'
p1975
I1
sS'Estate'
p1976
I1
sS'Research;'
p1977
I3
sS'read'
p1978
I1
sS'Management;'
p1979
I8
sS'Plan;'
p1980
I1
sS'here,'
p1981
I1
sS'Investment'
p1982
I1
sS'Ksh.'
p1983
I1
sS'Cost'
p1984
I2
sS'so'
p1985
I1
sS'MBA?\n\nWe'
p1986
I1
sS'(PDF'
p1987
I1
sS'time'
p1988
I5
sS'Bible,'
p1989
I1
sS'Accounting'
p1990
I1
sS'the'
p1991
I5
sS'In'
p1992
I1
ssS'label'
p1993
g1761
sa(dp1994
S'word_count'
p1995
(dp1996
S'limited'
p1997
I1
sS'all'
p1998
I8
sS'facilities'
p1999
I7
sS'welfare'
p2000
I1
sS'decisions'
p2001
I1
sS'branches),'
p2002
I1
sS'Business'
p2003
I3
sS'concerned'
p2004
I1
sS'to'
p2005
I37
sS'Now'
p2006
I1
sS'places?\n\nGood'
p2007
I1
sS'conflicting?\n\nThe'
p2008
I1
sS'Kitui,'
p2009
I1
sS'very'
p2010
I2
sS'personnel'
p2011
I1
sS'Meru,'
p2012
I1
sS'putting'
p2013
I1
sS'Curiously,'
p2014
I1
sS'Baringo,'
p2015
I1
sS'exist\xe2\x80\xa6.and'
p2016
I1
sS'0721'
p2017
I1
sS'level'
p2018
I1
sS'did'
p2019
I2
sS'accountants,'
p2020
I1
sS'announced'
p2021
I2
sS'supplies,'
p2022
I1
sS'HEALTHCARE'
p2023
I1
sS'front.'
p2024
I1
sS'revolution'
p2025
I1
sS'trend'
p2026
I1
sS'March,'
p2027
I1
sS'servants.\n\nWhile'
p2028
I1
sS'past'
p2029
I1
sS'likely'
p2030
I1
sS'BIGGEST'
p2031
I2
sS'what'
p2032
I1
sS'appear'
p2033
I1
sS'current'
p2034
I1
sS'new'
p2035
I4
sS'Francis'
p2036
I1
sS'public'
p2037
I1
sS'led'
p2038
I2
sS'submitted'
p2039
I1
sS'categorically'
p2040
I1
sS'answers'
p2041
I1
sS'Jan,'
p2042
I1
sS'Contact'
p2043
I1
sS'them'
p2044
I2
sS'others'
p2045
I1
sS'My'
p2046
I1
sS'wait'
p2047
I1
sS'Physicians,'
p2048
I1
sS'EVER'
p2049
I2
sS'changed'
p2050
I1
sS'leaving'
p2051
I1
sS'Market'
p2052
I1
sS'Economics;'
p2053
I1
sS'Organizational'
p2054
I2
sS'officers,nurses,lab'
p2055
I1
sS'Group'
p2056
I1
sS'family'
p2057
I2
sS'Top'
p2058
I1
sS'Relations'
p2059
I1
sS'Theory;'
p2060
I2
sS'Basic'
p2061
I1
sS'select'
p2062
I1
sS'from'
p2063
I2
sS'would'
p2064
I6
sS'&'
p2065
I4
sS'hospital'
p2066
I2
sS'visit'
p2067
I1
sS'two'
p2068
I1
sS'next'
p2069
I1
sS'doubt'
p2070
I1
sS'therefore'
p2071
I1
sS'criteria'
p2072
I1
sS'strike'
p2073
I2
sS'more'
p2074
I5
sS'hospitals/clinics'
p2075
I1
sS'it'
p2076
I4
sS'basically'
p2077
I3
sS'particular'
p2078
I2
sS'organizations'
p2079
I1
sS'ALL'
p2080
I1
sS'announcing'
p2081
I1
sS'Supply'
p2082
I1
sS'this'
p2083
I9
sS'do.\n\nThis'
p2084
I1
sS'budgets'
p2085
I1
sS'9th'
p2086
I1
sS'following'
p2087
I1
sS'Our'
p2088
I1
sS'my'
p2089
I3
sS'example'
p2090
I2
sS'Creation;'
p2091
I1
sS'scam'
p2092
I1
sS'stated'
p2093
I1
sS'process'
p2094
I1
sS'issue.'
p2095
I1
sS'want'
p2096
I1
sS'wished'
p2097
I1
sS'HEALTHCARE?\n'
p2098
I1
sS'firmly'
p2099
I1
sS'end'
p2100
I3
sS'provide'
p2101
I1
sS'TRANSPARENTLY'
p2102
I1
sS'instead'
p2103
I1
sS'Why'
p2104
I3
sS'A'
p2105
I1
sS'recipients,'
p2106
I1
sS'engineers,'
p2107
I1
sS'spot'
p2108
I1
sS'collection'
p2109
I1
sS'Culture;'
p2110
I1
sS'implementation.'
p2111
I1
sS'lay'
p2112
I1
sS'such'
p2113
I1
sS'provider.'
p2114
I1
sS'Corporate'
p2115
I1
sS'a'
p2116
I24
sS'208;'
p2117
I1
sS'attempt'
p2118
I1
sS'Kirinyaga,'
p2119
I1
sS'Bomet,'
p2120
I1
sS'Ksh.'
p2121
I1
sS'year.\n\n2.'
p2122
I1
sS'so'
p2123
I4
sS'healthcare'
p2124
I10
sS'Muranga,'
p2125
I1
sS'words'
p2126
I1
sS'talk'
p2127
I1
sS'What'
p2128
I1
sS'help'
p2129
I1
sS'CLinix'
p2130
I1
sS'over'
p2131
I2
sS'mission'
p2132
I1
sS'paper'
p2133
I1
sS'through'
p2134
I2
sS'making,'
p2135
I1
sS'its'
p2136
I3
sS'before'
p2137
I1
sS'chosen'
p2138
I1
sS'Auditing;'
p2139
I1
sS','
p2140
I1
sS'civil'
p2141
I11
sS'degrees'
p2142
I1
sS'covered'
p2143
I1
sS'nzoia,'
p2144
I1
sS'2012'
p2145
I2
sS'eventually'
p2146
I1
sS'Embu,'
p2147
I1
sS'good'
p2148
I2
sS'comprehensively'
p2149
I1
sS'records'
p2150
I1
sS'touching'
p2151
I1
sS'they'
p2152
I1
sS'not'
p2153
I6
sS'now'
p2154
I1
sS'day'
p2155
I1
sS'units.'
p2156
I1
sS'name'
p2157
I1
sS'servant'
p2158
I1
sS'Strategy;'
p2159
I1
sS'frantically'
p2160
I1
sS'BOOKS'
p2161
I1
sS'Nairobi(with'
p2162
I1
sS'each'
p2163
I1
sS'Kenya'
p2164
I1
sS'mean'
p2165
I1
sS'From'
p2166
I1
sS'doing'
p2167
I2
sS'bedsheets?'
p2168
I1
sS'books'
p2169
I1
sS'our'
p2170
I2
sS'mandated'
p2171
I1
sS'event'
p2172
I1
sS'out'
p2173
I2
sS'fraught'
p2174
I1
sS'at.'
p2175
I1
sS'health'
p2176
I3
sS'comprehensive'
p2177
I2
sS'at?'
p2178
I1
sS'issue'
p2179
I2
sS'Machakos,'
p2180
I1
sS'processed'
p2181
I1
sS'families.'
p2182
I1
sS'This'
p2183
I3
sS'processes\xe2\x80\xa6..before'
p2184
I1
sS'free'
p2185
I1
sS'standard'
p2186
I1
sS'labs'
p2187
I1
sS'put'
p2188
I1
sS'Investments'
p2189
I1
sS'care'
p2190
I1
sS'eventuality'
p2191
I1
sS'Chain'
p2192
I1
sS'e.g'
p2193
I2
sS'keep'
p2194
I1
sS'shelved'
p2195
I1
sS'turn'
p2196
I1
sS'Human'
p2197
I1
sS'doctors,'
p2198
I1
sS'overstretched'
p2199
I1
sS'STARING'
p2200
I2
sS'already'
p2201
I1
sS'There'
p2202
I1
sS'one'
p2203
I5
sS'soaring'
p2204
I1
sS'done'
p2205
I3
sS'others.\n'
p2206
I1
sS'Siaya,'
p2207
I1
sS'priority'
p2208
I1
sS'given'
p2209
I2
sS'service'
p2210
I1
sS'top'
p2211
I1
sS'threatening'
p2212
I1
sS'households'
p2213
I1
sS'their'
p2214
I2
sS'180'
p2215
I1
sS'2'
p2216
I1
sS'listed'
p2217
I1
sS'scheme'
p2218
I1
sS'3,000.\n'
p2219
I1
sS'too'
p2220
I2
sS'eyes'
p2221
I1
sS'that'
p2222
I13
sS'serve'
p2223
I1
sS'because'
p2224
I1
sS'consult'
p2225
I1
sS'speak,'
p2226
I1
sS'multi-billion'
p2227
I1
sS'require'
p2228
I1
sS'country\xe2\x80\x99s'
p2229
I1
sS'recruit'
p2230
I1
sS'bed'
p2231
I2
sS'project'
p2232
I1
sS'supposed'
p2233
I1
sS'were'
p2234
I2
sS'prone'
p2235
I1
sS'treated'
p2236
I1
sS'Chege'
p2237
I1
sS'and'
p2238
I18
sS'Information'
p2239
I1
sS'infrastructure,'
p2240
I2
sS'locations'
p2241
I1
sS'Plan;'
p2242
I1
sS'manner'
p2243
I1
sS'have'
p2244
I6
sS'Performance'
p2245
I1
sS'seen'
p2246
I1
sS'seem'
p2247
I2
sS'seek'
p2248
I1
sS'any'
p2249
I3
sS'viewed'
p2250
I1
sS'complete'
p2251
I1
sS'illness.'
p2252
I1
sS'responsible'
p2253
I1
sS'thorny'
p2254
I1
sS'majority'
p2255
I1
sS'Minister'
p2256
I1
sS'which'
p2257
I2
sS'relief'
p2258
I1
sS'personel,medical'
p2259
I1
sS'though'
p2260
I1
sS'Lamu,'
p2261
I1
sS'most'
p2262
I1
sS'said'
p2263
I1
sS'services'
p2264
I1
sS'The'
p2265
I2
sS'forever'
p2266
I1
sS'PACKAGE,'
p2267
I1
sS'especially'
p2268
I4
sS'Research;'
p2269
I3
sS'medical'
p2270
I8
sS'Statistics;'
p2271
I1
sS'cover'
p2272
I4
sS'Cost'
p2273
I2
sS'MBA?\n\nWe'
p2274
I1
sS'(PDF'
p2275
I1
sS'is\n\n1.Did'
p2276
I1
sS'scream'
p2277
I1
sS'WE'
p2278
I2
sS'Nyandarua,West'
p2279
I1
sS'doctors'
p2280
I2
sS'663'
p2281
I1
sS'Under'
p2282
I1
sS'Public'
p2283
I2
sS'staff'
p2284
I2
sS'completion'
p2285
I1
sS'We'
p2286
I1
sS'true.'
p2287
I1
sS'Consumer'
p2288
I1
sS'Brand'
p2289
I1
sS'only'
p2290
I3
sS'going'
p2291
I1
sS'various'
p2292
I1
sS'achieve'
p2293
I1
sS'do'
p2294
I5
sS'auditors,radiographers'
p2295
I1
sS'NHIF.'
p2296
I1
sS'colleagues'
p2297
I2
sS'cannot'
p2298
I1
sS'Resource;'
p2299
I1
sS'shared'
p2300
I1
sS'THE'
p2301
I2
sS'System;'
p2302
I1
sS'reveal'
p2303
I1
sS'Clinix'
p2304
I1
sS'common'
p2305
I1
sS'fixed'
p2306
I1
sS'where'
p2307
I3
sS'2011.'
p2308
I1
sS'Wealth'
p2309
I1
sS'fair'
p2310
I1
sS'Dec'
p2311
I1
sS'counties:Uasin'
p2312
I1
sS'Insurance;'
p2313
I1
sS'see'
p2314
I3
sS'are'
p2315
I7
sS'desperate'
p2316
I1
sS'directors,'
p2317
I1
sS'recently'
p2318
I1
sS'this.'
p2319
I1
sS'best'
p2320
I1
sS'Good'
p2321
I2
sS'Risk'
p2322
I1
sS'subcontracted'
p2323
I2
sS'away'
p2324
I1
sS'\nARE'
p2325
I1
sS'Gishu.'
p2326
I1
sS'timelines.\xe2\x80\x99\n\nAs'
p2327
I1
sS'Kenyans'
p2328
I1
sS'corruption'
p2329
I1
sS'Kajiado,'
p2330
I1
sS'we'
p2331
I5
sS'involved.'
p2332
I1
sS'rolled'
p2333
I1
sS'disposable'
p2334
I1
sS'restricting'
p2335
I1
sS'however'
p2336
I1
sS'Marketing;'
p2337
I1
sS'job'
p2338
I1
sS'Leadership;'
p2339
I1
sS'improve'
p2340
I2
sS'AND'
p2341
I1
sS'both'
p2342
I1
sS'to!'
p2343
I1
sS'transparency'
p2344
I2
sS'oversee'
p2345
I1
sS'country'
p2346
I2
sS'ill'
p2347
I1
sS'morale.'
p2348
I1
sS'union,'
p2349
I1
sS'drug'
p2350
I1
sS'dated'
p2351
I1
sS'year.\n\nAll'
p2352
I1
sS'holders'
p2353
I1
sS'asked'
p2354
I2
sS'comes'
p2355
I1
sS'allowance'
p2356
I2
sS'among'
p2357
I2
sS'\nFor'
p2358
I1
sS'Kiambu,'
p2359
I1
sS'reasons'
p2360
I1
sS'DVD'
p2361
I1
sS'6,'
p2362
I1
sS'Bungoma,'
p2363
I1
sS'whatever'
p2364
I1
sS'coutry\xe2\x80\x99s'
p2365
I1
sS'Law;'
p2366
I1
sS'Kisumu,'
p2367
I1
sS'allocated'
p2368
I3
sS'none?\n\nWouldn\xe2\x80\x99t'
p2369
I1
sS'considering'
p2370
I1
sS'facilities?'
p2371
I1
sS'puts'
p2372
I1
sS'books).'
p2373
I1
sS'Obstetricians\n\nWhy'
p2374
I1
sS'\nAre'
p2375
I1
sS'due'
p2376
I1
sS'been'
p2377
I7
sS'advert'
p2378
I2
sS'commission'
p2379
I1
sS'Pediatricians'
p2380
I1
sS'facilities,'
p2381
I1
sS'basic'
p2382
I1
sS'suspicion'
p2383
I1
sS'E-books'
p2384
I1
sS'eyebrows.'
p2385
I1
sS'website'
p2386
I1
sS'shortages'
p2387
I1
sS'Taita'
p2388
I1
sS'minister'
p2389
I2
sS'demand'
p2390
I2
sS'Trans'
p2391
I1
sS'Otieno'
p2392
I1
sS'those'
p2393
I1
sS'And'
p2394
I2
sS'swindled,'
p2395
I1
sS'politician'
p2396
I1
sS'look'
p2397
I2
sS'To'
p2398
I1
sS'these'
p2399
I4
sS'Sales'
p2400
I1
sS'will'
p2401
I4
sS'Communication'
p2402
I1
sS'newspaper'
p2403
I1
sS'page11'
p2404
I1
sS'Isiolo,'
p2405
I1
sS'promised'
p2406
I1
sS'techs,'
p2407
I1
sS'SCAM'
p2408
I2
sS'is'
p2409
I12
sS'herein'
p2410
I1
sS'level.'
p2411
I1
sS'quiet'
p2412
I1
sS'pharm'
p2413
I1
sS'in'
p2414
I21
sS'34'
p2415
I1
sS'Kakamega,'
p2416
I1
sS'servants'
p2417
I8
sS'make'
p2418
I1
sS'MBA'
p2419
I1
sS'same'
p2420
I1
sS'Banking;'
p2421
I1
sS'taveta,'
p2422
I1
sS'questions.\n\n3.'
p2423
I1
sS'big'
p2424
I2
sS'several'
p2425
I1
sS'Qualitative'
p2426
I1
sS'used'
p2427
I1
sS'I'
p2428
I7
sS'CLINIX'
p2429
I2
sS'IT'
p2430
I1
sS'levels'
p2431
I1
sS'arrived'
p2432
I2
sS'IN'
p2433
I2
sS'build'
p2434
I1
sS'hospitals.'
p2435
I1
sS'Migori.'
p2436
I1
sS'spent'
p2437
I1
sS'Investment'
p2438
I1
sS'procurement'
p2439
I2
sS'ARE'
p2440
I1
sS'In'
p2441
I2
sS'the'
p2442
I52
sS'spend'
p2443
I1
sS'project.'
p2444
I1
sS'Service'
p2445
I1
sS'money'
p2446
I3
sS'officers,'
p2447
I2
sS'clinic'
p2448
I1
sS'questions'
p2449
I1
sS'Kenyan'
p2450
I1
sS'enlighten'
p2451
I1
sS'death'
p2452
I1
sS'ads'
p2453
I1
sS'either.'
p2454
I1
sS'Mombasa,'
p2455
I1
sS'setting'
p2456
I1
sS'treatment'
p2457
I1
sS'has'
p2458
I11
sS'By'
p2459
I1
sS'Change'
p2460
I2
sS'take'
p2461
I1
sS'officers,paramedics,'
p2462
I1
sS'Unfortunately'
p2463
I1
sS'question,'
p2464
I1
sS'showing'
p2465
I1
sS'Project'
p2466
I1
sS'inflation'
p2467
I1
sS'know'
p2468
I2
sS'Entrepreneurship;'
p2469
I1
sS'govt'
p2470
I6
sS'groups.'
p2471
I1
sS'Behaviour;'
p2472
I1
sS'investigate\xe2\x80\xa6..then'
p2473
I1
sS'Operations'
p2474
I2
sS'issues.'
p2475
I1
sS'like'
p2476
I3
sS'country.'
p2477
I1
sS'Kilifi,'
p2478
I1
sS'specific'
p2479
I1
sS'private'
p2480
I5
sS'individuals'
p2481
I1
sS'page'
p2482
I1
sS'poor'
p2483
I1
sS'indications'
p2484
I1
sS'Management'
p2485
I2
sS'Laikipia,'
p2486
I1
sS'deal'
p2487
I3
sS'people'
p2488
I3
sS'some'
p2489
I4
sS'NHIF'
p2490
I6
sS'consultants'
p2491
I1
sS'election'
p2492
I2
sS'International'
p2493
I1
sS'Meridian'
p2494
I1
sS'for'
p2495
I13
sS'avoid'
p2496
I1
sS'asking'
p2497
I1
sS'allocate'
p2498
I1
sS'provider'
p2499
I2
sS'francis@safarisoftsolutions.com\n\n'
p2500
I1
sS'be'
p2501
I10
sS'\nThe'
p2502
I1
sS'dental'
p2503
I1
sS'Skills;'
p2504
I1
sS'public,'
p2505
I1
sS'by'
p2506
I4
sS'counties'
p2507
I1
sS'on'
p2508
I12
sS'about'
p2509
I1
sS'staff,'
p2510
I1
sS'package'
p2511
I1
sS'of'
p2512
I21
sS'servants?\n\nJust'
p2513
I1
sS'deserves'
p2514
I1
sS'nothing'
p2515
I1
sS'\n\nTouted'
p2516
I1
sS'HEALTHCARE?\n\nA'
p2517
I1
sS'irked'
p2518
I1
sS'Mathematics;'
p2519
I1
sS'own'
p2520
I1
sS'lied'
p2521
I1
sS'facility'
p2522
I4
sS'previously'
p2523
I1
sS'into'
p2524
I1
sS'lies'
p2525
I1
sS'google'
p2526
I1
sS'facillities'
p2527
I1
sS'raises'
p2528
I1
sS'Makueni,'
p2529
I1
sS'\xe2\x80\x98We'
p2530
I1
sS'forwarded'
p2531
I1
sS'REFERENCE'
p2532
I1
sS'there'
p2533
I1
sS'start'
p2534
I1
sS'low'
p2535
I1
sS'lot'
p2536
I1
sS'forward'
p2537
I1
sS'Nyeri,'
p2538
I1
sS'was'
p2539
I7
sS'buy'
p2540
I1
sS'gift,'
p2541
I1
sS'year\xe2\x80\x99s'
p2542
I1
sS'form'
p2543
I1
sS'January'
p2544
I1
sS'Finance;'
p2545
I3
sS'restrictions'
p2546
I1
sS'marakwet,Nandi,Narok'
p2547
I1
sS'pokot,Samburu,Elgeyo'
p2548
I1
sS'same.'
p2549
I1
sS'Officers,clerks,'
p2550
I1
sS'with'
p2551
I5
sS'info'
p2552
I1
sS'1024'
p2553
I1
sS'hire'
p2554
I1
sS'safe!\n\n--'
p2555
I1
sS'organizations.'
p2556
I1
sS'obscure.'
p2557
I1
sS'vacancies'
p2558
I1
sS'up'
p2559
I3
sS'Nakuru,'
p2560
I1
sS'Kericho,'
p2561
I1
sS'clear'
p2562
I1
sS'medication'
p2563
I1
sS'scam!\n\nStay'
p2564
I1
sS'Busia,'
p2565
I1
sS'nurses'
p2566
I1
sS'received'
p2567
I1
sS'an'
p2568
I4
sS'How'
p2569
I1
sS'as'
p2570
I3
sS'Clinical'
p2571
I1
sS'exist'
p2572
I1
sS'at'
p2573
I3
sS'dispensation'
p2574
I1
sS'Dalmas'
p2575
I1
sS'hospitals'
p2576
I1
sS'check'
p2577
I1
sS'Real'
p2578
I1
sS'profit,'
p2579
I1
sS'areas,'
p2580
I1
sS'no'
p2581
I4
sS'Surgeons,'
p2582
I1
sS'stake'
p2583
I1
sS'when'
p2584
I5
sS'non-existant'
p2585
I1
sS'other'
p2586
I3
sS'income'
p2587
I1
sS'you'
p2588
I1
sS'deviation'
p2589
I1
sS'gishu,'
p2590
I1
sS'meaning'
p2591
I1
sS'important'
p2592
I1
sS'AT'
p2593
I2
sS'Accounting'
p2594
I1
sS'rolling'
p2595
I1
sS'Uasin'
p2596
I1
sS'Estate'
p2597
I1
sS'Management;'
p2598
I8
sS'Private'
p2599
I1
sS'As'
p2600
I1
sS'time'
p2601
I1
sS'once'
p2602
I1
ssS'label'
p2603
g1761
sa(dp2604
S'word_count'
p2605
(dp2606
S'Dutch'
p2607
I3
sS'Resource;'
p2608
I1
sS'just'
p2609
I1
sS'among'
p2610
I1
sS'being'
p2611
I1
sS'Lake'
p2612
I1
sS'663'
p2613
I1
sS'unrest'
p2614
I1
sS'right.\nThis'
p2615
I1
sS'find'
p2616
I1
sS'issues'
p2617
I1
sS'Creation;'
p2618
I1
sS'DCJ'
p2619
I1
sS'Tourist'
p2620
I1
sS'Business'
p2621
I3
sS'how'
p2622
I1
sS',because'
p2623
I1
sS'Brand'
p2624
I1
sS'Auditing;'
p2625
I1
sS'Victoria'
p2626
I1
sS'to'
p2627
I14
sS'has'
p2628
I1
sS'sent'
p2629
I1
sS'0721'
p2630
I1
sS'government'
p2631
I2
sS'banned'
p2632
I1
sS'Yps\nToday'
p2633
I1
sS'Project'
p2634
I1
sS'community'
p2635
I1
sS'they'
p2636
I2
sS'Entrepreneurship;'
p2637
I1
sS'not'
p2638
I1
sS'Behaviour;'
p2639
I1
sS'now'
p2640
I1
sS'System;'
p2641
I1
sS'units.'
p2642
I1
sS'Operations'
p2643
I2
sS'like'
p2644
I2
sS'Strategy;'
p2645
I1
sS'did'
p2646
I1
sS'poor,just'
p2647
I1
sS'these'
p2648
I1
sS'bad'
p2649
I1
sS'BOOKS'
p2650
I1
sS'she'
p2651
I1
sS'ban'
p2652
I3
sS'Kenya'
p2653
I4
sS'security'
p2654
I1
sS'miraa'
p2655
I1
sS'Management'
p2656
I2
sS'Wealth'
p2657
I1
sS'doing'
p2658
I1
sS'Sales'
p2659
I1
sS'books'
p2660
I1
sS'export'
p2661
I1
sS'expect'
p2662
I1
sS'International'
p2663
I1
sS'Insurance;'
p2664
I1
sS'best'
p2665
I1
sS'Luo'
p2666
I1
sS'will'
p2667
I1
sS'mood'
p2668
I1
sS'\nThanks\nGibson'
p2669
I1
sS'remain'
p2670
I1
sS'Public'
p2671
I1
sS'continue'
p2672
I1
sS'Village'
p2673
I1
sS'import'
p2674
I1
sS'Francis'
p2675
I1
sS'can'
p2676
I1
sS'francis@safarisoftsolutions.com\n\n'
p2677
I1
sS'we'
p2678
I3
sS'\nThe'
p2679
I1
sS'water.\n\nThe'
p2680
I1
sS'Mt'
p2681
I1
sS'Contact'
p2682
I1
sS'Skills;'
p2683
I1
sS'Meru'
p2684
I1
sS'region'
p2685
I1
sS'Leadership;'
p2686
I1
sS'by'
p2687
I1
sS'E-books'
p2688
I1
sS'on'
p2689
I3
sS'Chain'
p2690
I1
sS'Marketing;'
p2691
I1
sS'quitely'
p2692
I1
sS'of'
p2693
I4
sS'mirra'
p2694
I2
sS'soon.\n--'
p2695
I1
sS'Human'
p2696
I1
sS'Economics;'
p2697
I1
sS'Organizational'
p2698
I2
sS'implement'
p2699
I1
sS'Chege'
p2700
I1
sS'whole'
p2701
I1
sS'or'
p2702
I2
sS'comes'
p2703
I1
sS'plan'
p2704
I1
sS'feed'
p2705
I1
sS'Mathematics;'
p2706
I1
sS'\nFor'
p2707
I1
sS'dont'
p2708
I1
sS'bridge'
p2709
I1
sS'DVD'
p2710
I1
sS'Relations'
p2711
I1
sS'one'
p2712
I1
sS'guard'
p2713
I1
sS'excuse'
p2714
I1
sS'Theory;'
p2715
I2
sS'another'
p2716
I1
sS'Law;'
p2717
I1
sS'are'
p2718
I1
sS'little'
p2719
I2
sS'from'
p2720
I2
sS'REFERENCE'
p2721
I1
sS'&'
p2722
I4
sS'books).'
p2723
I1
sS'\nAre'
p2724
I1
sS'due'
p2725
I1
sS'been'
p2726
I1
sS'Investments'
p2727
I1
sS'2'
p2728
I1
sS'way'
p2729
I1
sS'Market\nNow'
p2730
I1
sS'was'
p2731
I3
sS'more'
p2732
I1
sS'complete'
p2733
I1
sS'that'
p2734
I2
sS'but'
p2735
I1
sS'else'
p2736
I2
sS'house,Dutch'
p2737
I1
sS'Amenya\n\n\n--'
p2738
I1
sS'hold'
p2739
I1
sS'Consumer'
p2740
I1
sS'info'
p2741
I1
sS'1024'
p2742
I1
sS'Supply'
p2743
I1
sS'this'
p2744
I1
sS'3,000.\n'
p2745
I1
sS'incase'
p2746
I1
sS'beg'
p2747
I1
sS'youth'
p2748
I1
sS'Britain'
p2749
I1
sS'Change'
p2750
I2
sS'Communication'
p2751
I1
sS'following'
p2752
I1
sS'making'
p2753
I1
sS'problem'
p2754
I1
sS'rethink'
p2755
I1
sS'Market'
p2756
I1
sS'Nyanza'
p2757
I1
sS'and'
p2758
I2
sS'Information'
p2759
I1
sS'Vice'
p2760
I1
sS'Management;'
p2761
I8
sS'imports'
p2762
I1
sS'is'
p2763
I3
sS'in'
p2764
I4
sS'am'
p2765
I1
sS'site'
p2766
I1
sS'an'
p2767
I1
sS'as'
p2768
I2
sS'20b'
p2769
I1
sS'battered'
p2770
I1
sS'have'
p2771
I3
sS'Performance'
p2772
I1
sS'Nile'
p2773
I1
sS'any'
p2774
I1
sS'Real'
p2775
I1
sS'ban.\n\nThe'
p2776
I1
sS'\nHello'
p2777
I1
sS',our'
p2778
I1
sS'Perch'
p2779
I1
sS'when'
p2780
I3
sS'MBA'
p2781
I1
sS'members'
p2782
I1
sS'Banking;'
p2783
I1
sS'species.\n\nIs'
p2784
I1
sS'elephant'
p2785
I1
sS'President'
p2786
I1
sS'you'
p2787
I1
sS'Qualitative'
p2788
I1
sS'economy'
p2789
I1
sS'others.\n'
p2790
I1
sS'I'
p2791
I1
sS'package'
p2792
I1
sS'social'
p2793
I1
sS'collection'
p2794
I1
sS'Culture;'
p2795
I1
sS'trickling'
p2796
I1
sS'Finance;'
p2797
I3
sS'coming'
p2798
I1
sS'The'
p2799
I1
sS'gap'
p2800
I1
sS'Corporate'
p2801
I1
sS'Risk'
p2802
I1
sS'a'
p2803
I3
sS'208;'
p2804
I1
sS'introduced'
p2805
I1
sS'PACKAGE,'
p2806
I1
sS'Tilapia'
p2807
I2
sS'Estate'
p2808
I1
sS'Research;'
p2809
I3
sS'Statistics;'
p2810
I1
sS'Plan;'
p2811
I1
sS'Investment'
p2812
I1
sS'Ksh.'
p2813
I1
sS'nosed'
p2814
I1
sS'Cost'
p2815
I2
sS'MBA?\n\nWe'
p2816
I1
sS'(PDF'
p2817
I1
sS'time'
p2818
I1
sS'retaliate'
p2819
I1
sS'Accounting'
p2820
I1
sS'the'
p2821
I6
sS'at'
p2822
I1
sS'left'
p2823
I1
ssS'label'
p2824
g1761
sa(dp2825
S'word_count'
p2826
(dp2827
g4
I3
sS'all'
p2828
I3
sS'Resource;'
p2829
I1
sS'just'
p2830
I4
sS'1349'
p2831
I1
sS'welcomed'
p2832
I1
sS'663'
p2833
I1
sS'permission.'
p2834
I1
sS'through'
p2835
I1
sS'(if'
p2836
I1
sS'skin'
p2837
I1
sS'go'
p2838
I2
sS'hell'
p2839
I1
sS'year.\n\nIf'
p2840
I1
sS'children'
p2841
I1
sS'make'
p2842
I1
sS'generous'
p2843
I2
sS'Creation;'
p2844
I1
sS'group'
p2845
I1
sS'wish'
p2846
I2
sS'Business'
p2847
I3
sS'ladies,'
p2848
I1
sS'Consumer'
p2849
I1
sS'Brand'
p2850
I1
sS'Auditing;'
p2851
I1
sS'to'
p2852
I13
sS'only'
p2853
I2
sS'going'
p2854
I1
sS'choose'
p2855
I1
sS'under'
p2856
I2
sS'units.'
p2857
I1
sS'Change'
p2858
I2
sS'2012'
p2859
I1
sS'do'
p2860
I4
sS'good'
p2861
I1
sS'oriflame'
p2862
I2
sS'advantage'
p2863
I1
sS'get'
p2864
I2
sS'very'
p2865
I2
sS'showing'
p2866
I1
sS'Project'
p2867
I1
sS'me'
p2868
I2
sS'know'
p2869
I2
sS'they'
p2870
I1
sS'Entrepreneurship;'
p2871
I1
sS'not'
p2872
I4
sS'using'
p2873
I2
sS'Behaviour;'
p2874
I1
sS'now'
p2875
I1
sS'System;'
p2876
I1
sS'total.\n\nIf'
p2877
I1
sS'Operations'
p2878
I2
sS'name'
p2879
I1
sS'Strategy;'
p2880
I1
sS'Organizational'
p2881
I2
sS'list'
p2882
I1
sS'shs.4900/='
p2883
I1
sS'\nHi'
p2884
I1
sS'BOOKS'
p2885
I1
sS'House'
p2886
I1
sS'-='
p2887
I1
sS'Corner'
p2888
I1
sS'others.\n'
p2889
I1
sS'Management'
p2890
I2
sS'Wealth'
p2891
I1
sS'people'
p2892
I1
sS'doing'
p2893
I1
sS'house)'
p2894
I1
sS'ends'
p2895
I1
sS'Insurance;'
p2896
I1
sS'touch'
p2897
I1
sS'see'
p2898
I1
sS'books'
p2899
I1
sS'are'
p2900
I1
sS'corner'
p2901
I1
sS'our'
p2902
I1
sS'people,\n\nI'
p2903
I1
sS'Risk'
p2904
I1
sS'for'
p2905
I3
sS'giving'
p2906
I1
sS'please'
p2907
I1
sS'its'
p2908
I1
sS'Yaya'
p2909
I2
sS'ages,'
p2910
I1
sS'catalogue'
p2911
I1
sS'new'
p2912
I1
sS'Francis'
p2913
I1
sS'amounting'
p2914
I1
sS'francis@safarisoftsolutions.com\n\n'
p2915
I1
sS'be'
p2916
I2
sS'we'
p2917
I1
sS'\nThe'
p2918
I1
sS'Mzera'
p2919
I1
sS'men'
p2920
I1
sS'consultant,'
p2921
I1
sS'depots'
p2922
I1
sS'discount'
p2923
I1
sS'Contact'
p2924
I1
sS'let'
p2925
I1
sS'Skills;'
p2926
I1
sS'Leadership;'
p2927
I1
sS'Mathematics;'
p2928
I1
sS'by'
p2929
I1
sS'E-books'
p2930
I1
sS'on'
p2931
I2
sS'about'
p2932
I1
sS'Chain'
p2933
I1
sS'flactuating'
p2934
I1
sS'receive'
p2935
I1
sS'items'
p2936
I2
sS'No.1349\n\n--'
p2937
I1
sS'etc'
p2938
I1
sS'shs.4900'
p2939
I1
sS'products'
p2940
I2
sS'Human'
p2941
I1
sS'Economics;'
p2942
I1
sS'0722272446'
p2943
I1
sS'Mzera\n0722272446\nConsultant'
p2944
I1
sS'or'
p2945
I1
sS'comes'
p2946
I1
sS'among'
p2947
I1
sS'\nFor'
p2948
I1
sS'love'
p2949
I1
sS'price.'
p2950
I1
sS'Information'
p2951
I1
sS'feel'
p2952
I1
sS'DVD'
p2953
I1
sS'number'
p2954
I3
sS'Relations'
p2955
I1
sS'sampling'
p2956
I1
sS'shs.2900'
p2957
I1
sS'Theory;'
p2958
I2
sS'Law;'
p2959
I1
sS'Performance'
p2960
I1
sS'your'
p2961
I1
sS'there,'
p2962
I1
sS'from'
p2963
I1
sS'REFERENCE'
p2964
I1
sS'&'
p2965
I4
sS'books).'
p2966
I1
sS'give'
p2967
I1
sS'visit'
p2968
I1
sS'natural.\n\nAm'
p2969
I1
sS'Investments'
p2970
I1
sS'offer.\n\nThat'
p2971
I1
sS'3,000.\n'
p2972
I1
sS'more'
p2973
I1
sS'a'
p2974
I6
sS'buy'
p2975
I1
sS'an'
p2976
I3
sS'complete'
p2977
I1
sS'form'
p2978
I1
sS'offer'
p2979
I1
sS'0721'
p2980
I1
sS'Public'
p2981
I1
sS'took'
p2982
I1
sS'but'
p2983
I2
sS'6pm\n\nTake'
p2984
I1
sS'2012.'
p2985
I1
sS'what,'
p2986
I1
sS'with'
p2987
I1
sS'those'
p2988
I1
sS'economy.\n\nBe'
p2989
I1
sS'customer'
p2990
I1
sS'1024'
p2991
I1
sS'join'
p2992
I1
sS'14'
p2993
I1
sS'Supply'
p2994
I1
sS'this'
p2995
I3
sS'consultant'
p2996
I2
sS'straight'
p2997
I1
sS'package'
p2998
I1
sS'Sales'
p2999
I1
sS'will'
p3000
I2
sS'info'
p3001
I1
sS'can'
p3002
I1
sS'Communication'
p3003
I1
sS'following'
p3004
I1
sS'feeling'
p3005
I1
sS'my'
p3006
I6
sS'agree'
p3007
I1
sS'Market'
p3008
I1
sS'Chege'
p3009
I1
sS'and'
p3010
I7
sS'gone'
p3011
I1
sS'Statistics;'
p3012
I1
sS'want'
p3013
I2
sS'service,'
p3014
I1
sS'of'
p3015
I6
sS'is'
p3016
I3
sS'in'
p3017
I6
sS'am'
p3018
I2
sS'gift,'
p3019
I1
sS'well,'
p3020
I1
sS'products,'
p3021
I1
sS'minimum'
p3022
I1
sS'at'
p3023
I2
sS'have'
p3024
I4
sS'International'
p3025
I1
sS'wonderful'
p3026
I1
sS'any'
p3027
I2
sS'as'
p3028
I4
sS'if'
p3029
I2
sS'\nAre'
p3030
I1
sS'Esther'
p3031
I1
sS'floor'
p3032
I1
sS'pay'
p3033
I1
sS'Marketing;'
p3034
I1
sS'that'
p3035
I2
sS'MBA'
p3036
I1
sS'same'
p3037
I1
sS'orders'
p3038
I1
sS'shs.2000'
p3039
I1
sS'Banking;'
p3040
I1
sS'guests.\n\nEsther'
p3041
I1
sS'January'
p3042
I1
sS'you'
p3043
I13
sS'Qualitative'
p3044
I1
sS'Real'
p3045
I1
sS'beauty'
p3046
I1
sS'I'
p3047
I2
sS'price'
p3048
I1
sS'Later'
p3049
I1
sS'business.'
p3050
I1
sS'collection'
p3051
I1
sS'Culture;'
p3052
I1
sS'4th'
p3053
I1
sS'cater'
p3054
I1
sS'Finance;'
p3055
I3
sS'say'
p3056
I2
sS'The'
p3057
I1
sS'Corporate'
p3058
I1
sS'types'
p3059
I1
sS'2'
p3060
I1
sS'208;'
p3061
I1
sS'PACKAGE,'
p3062
I1
sS'especially'
p3063
I1
sS'Estate'
p3064
I1
sS'Research;'
p3065
I3
sS'also'
p3066
I1
sS'Management;'
p3067
I8
sS'Plan;'
p3068
I1
sS'Investment'
p3069
I1
sS'Ksh.'
p3070
I1
sS'Cost'
p3071
I2
sS'MBA?\n\nWe'
p3072
I1
sS'(PDF'
p3073
I1
sS'Accounting'
p3074
I1
sS'the'
p3075
I4
sS'order'
p3076
I3
sS'\n\nThis'
p3077
I1
sS'Fill'
p3078
I1
ssS'label'
p3079
g1761
sa(dp3080
S'word_count'
p3081
(dp3082
S'all'
p3083
I2
sS'help'
p3084
I1
sS'Mathematics;'
p3085
I1
sS'663'
p3086
I1
sS'purely'
p3087
I1
sS'shape'
p3088
I1
sS'financially'
p3089
I1
sS'identify'
p3090
I1
sS'human'
p3091
I1
sS'go'
p3092
I1
sS'Public'
p3093
I1
sS'impact'
p3094
I1
sS'suicide'
p3095
I1
sS'Business'
p3096
I3
sS'also'
p3097
I1
sS'failed'
p3098
I3
sS'Brand'
p3099
I1
sS'Auditing;'
p3100
I1
sS'young'
p3101
I2
sS'resorting'
p3102
I1
sS'to'
p3103
I10
sS'finally'
p3104
I1
sS'4'
p3105
I1
sS'succeed.\nI'
p3106
I1
sS'has'
p3107
I1
sS'Resource;'
p3108
I1
sS'Change'
p3109
I2
sS'stakeholders'
p3110
I1
sS'0721'
p3111
I1
sS'them'
p3112
I1
sS'increased'
p3113
I1
sS'very'
p3114
I1
sS'Qualitative'
p3115
I1
sS'early'
p3116
I1
sS'Classes'
p3117
I1
sS'know'
p3118
I1
sS'they'
p3119
I1
sS'Entrepreneurship;'
p3120
I1
sS'not'
p3121
I3
sS'Behaviour;'
p3122
I1
sS'Creation;'
p3123
I1
sS'System;'
p3124
I1
sS'units.'
p3125
I1
sS'Operations'
p3126
I2
sS'society.\n\nMaybe'
p3127
I1
sS'like'
p3128
I1
sS'Strategy;'
p3129
I1
sS'did'
p3130
I1
sS'lives.\nFailing'
p3131
I1
sS'identified'
p3132
I1
sS'BOOKS'
p3133
I1
sS'Education'
p3134
I2
sS'where'
p3135
I1
sS'Theory;'
p3136
I2
sS'because'
p3137
I1
sS'Wealth'
p3138
I1
sS'people'
p3139
I3
sS'doing'
p3140
I1
sS'Kenyans,\nAccording'
p3141
I1
sS'some'
p3142
I2
sS'Sales'
p3143
I1
sS'past'
p3144
I1
sS'imply'
p3145
I1
sS'books'
p3146
I1
sS'are'
p3147
I3
sS'our'
p3148
I6
sS'out'
p3149
I1
sS'happens'
p3150
I1
sS'Risk'
p3151
I1
sS'for'
p3152
I1
sS'factors'
p3153
I1
sS'\nThanks\nGibson'
p3154
I1
sS'I'
p3155
I1
sS'imperative'
p3156
I1
sS'Kenyans'
p3157
I1
sS'Francis'
p3158
I1
sS'Class'
p3159
I1
sS'shows'
p3160
I1
sS'francis@safarisoftsolutions.com\n\n'
p3161
I1
sS'be'
p3162
I3
sS'we'
p3163
I4
sS'\nThe'
p3164
I1
sS'never'
p3165
I1
sS'weak'
p3166
I1
sS'Marketing;'
p3167
I1
sS'Contact'
p3168
I1
sS'premise'
p3169
I1
sS'Project'
p3170
I1
sS'news'
p3171
I1
sS'Leadership;'
p3172
I1
sS'Investments'
p3173
I1
sS'First'
p3174
I1
sS'obtained'
p3175
I2
sS'both'
p3176
I1
sS'kids'
p3177
I1
sS'Chain'
p3178
I1
sS'package'
p3179
I1
sS'Communication'
p3180
I1
sS'study'
p3181
I1
sS'exams'
p3182
I1
sS'Human'
p3183
I1
sS'Economics;'
p3184
I1
sS'Organizational'
p3185
I2
sS'Investment'
p3186
I1
sS'comes'
p3187
I1
sS'Exams'
p3188
I1
sS'among'
p3189
I1
sS'own'
p3190
I1
sS'Skills;'
p3191
I1
sS'gone'
p3192
I1
sS'grade'
p3193
I1
sS'DVD'
p3194
I1
sS'Relations'
p3195
I1
sS'one'
p3196
I1
sS'Management'
p3197
I2
sS'others.\n'
p3198
I1
sS'Law;'
p3199
I1
sS'amenya.gibson\n\n--'
p3200
I1
sS'establish'
p3201
I1
sS'late'
p3202
I1
sS'REFERENCE'
p3203
I1
sS'&'
p3204
I4
sS'books).'
p3205
I1
sS'Amenya\nskype'
p3206
I1
sS'\nAre'
p3207
I1
sS'system'
p3208
I1
sS'sports'
p3209
I1
sS'whom'
p3210
I1
sS'2'
p3211
I1
sS'E-books'
p3212
I1
sS'3,000.\n'
p3213
I1
sS'people.\n\nHow'
p3214
I1
sS'else.\nThey'
p3215
I1
sS'complete'
p3216
I1
sS'girls'
p3217
I3
sS'successful'
p3218
I3
sS'becomes'
p3219
I1
sS'due'
p3220
I1
sS'but'
p3221
I4
sS'failure'
p3222
I1
sS'talents'
p3223
I1
sS'mothers,successful'
p3224
I1
sS'external'
p3225
I1
sS'\nDear'
p3226
I1
sS'singers,dancers'
p3227
I1
sS'Consumer'
p3228
I1
sS'info'
p3229
I1
sS'1024'
p3230
I1
sS'made'
p3231
I1
sS'society.'
p3232
I1
sS'Supply'
p3233
I1
sS'this'
p3234
I2
sS'work'
p3235
I1
sS'Insurance;'
p3236
I1
sS'us'
p3237
I1
sS'will'
p3238
I1
sS'values'
p3239
I1
sS'can'
p3240
I2
sS'of'
p3241
I8
sS'following'
p3242
I1
sS'rate'
p3243
I1
sS'my'
p3244
I2
sS'could'
p3245
I1
sS'Market'
p3246
I1
sS'Chege'
p3247
I1
sS'and'
p3248
I4
sS'Information'
p3249
I1
sS'Management;'
p3250
I8
sS'friends'
p3251
I1
sS'is'
p3252
I4
sS'in'
p3253
I5
sS'it'
p3254
I1
sS'an'
p3255
I1
sS'socially.\n\nIt'
p3256
I1
sS'something'
p3257
I1
sS'have'
p3258
I8
sS'International'
p3259
I1
sS'seen'
p3260
I1
sS'education'
p3261
I1
sS'their'
p3262
I1
sS'supporters'
p3263
I1
sS'Real'
p3264
I1
sS'needs'
p3265
I1
sS'academically'
p3266
I1
sS'end'
p3267
I1
sS'Ministry'
p3268
I1
sS'when'
p3269
I1
sS'MBA'
p3270
I1
sS'Banking;'
p3271
I1
sS'that'
p3272
I4
sS'Cost'
p3273
I2
sS'take'
p3274
I1
sS',facts'
p3275
I1
sS'so'
p3276
I1
sS'you'
p3277
I1
sS'many'
p3278
I2
sS'\nFor'
p3279
I1
sS'even'
p3280
I1
sS'committing'
p3281
I1
sS'world.\n\nIs'
p3282
I1
sS'why'
p3283
I1
sS'upon'
p3284
I1
sS'collection'
p3285
I1
sS'Culture;'
p3286
I1
sS'Finance;'
p3287
I3
sS'more.\n\n--'
p3288
I1
sS'The'
p3289
I1
sS'on'
p3290
I1
sS'Corporate'
p3291
I1
sS'class'
p3292
I1
sS'a'
p3293
I3
sS'208;'
p3294
I1
sS'PACKAGE,'
p3295
I1
sS'especially'
p3296
I1
sS'Estate'
p3297
I1
sS'Research;'
p3298
I3
sS'F'
p3299
I1
sS'maybe'
p3300
I1
sS'Statistics;'
p3301
I1
sS'exams.\nIn'
p3302
I1
sS'Plan;'
p3303
I1
sS'Ksh.'
p3304
I1
sS'more'
p3305
I1
sS'Performance'
p3306
I1
sS'teachers'
p3307
I1
sS'students'
p3308
I1
sS'MBA?\n\nWe'
p3309
I1
sS'(PDF'
p3310
I1
sS'Accounting'
p3311
I1
sS'the'
p3312
I3
ssS'label'
p3313
g1761
sa(dp3314
S'word_count'
p3315
(dp3316
S'and'
p3317
I3
sS'summer'
p3318
I1
sS'all'
p3319
I1
sS'28,2012.\n\nFor'
p3320
I1
sS'partial'
p3321
I1
sS'Sommerhochschule'
p3322
I1
sS'limited'
p3323
I1
sS'over'
p3324
I1
sS'number'
p3325
I1
sS'summer\nprogram'
p3326
I1
sS'financial'
p3327
I1
sS'Program'
p3328
I1
sS'deadline'
p3329
I1
sS'are'
p3330
I2
sS'in'
p3331
I2
sS'International'
p3332
I2
sS'is\nFebruary'
p3333
I1
sS"Austria's\nmost"
p3334
I1
sS'excellence\nand'
p3335
I1
sS'Vienna'
p3336
I1
sS'information'
p3337
I1
sS'scholarships'
p3338
I1
sS'from'
p3339
I2
sS'for'
p3340
I3
sS'euros'
p3341
I1
sS'Asst\nCentre'
p3342
I1
sS'visit'
p3343
I1
sS'vacation'
p3344
I1
sS'region,one'
p3345
I1
sS'awarded'
p3346
I1
sS'located'
p3347
I1
sS'offers'
p3348
I1
sS'attractive'
p3349
I1
sS'Salzkammergut'
p3350
I1
sS'is'
p3351
I1
sS'need.The'
p3352
I1
sS'available'
p3353
I1
sS'basis'
p3354
I1
sS'more'
p3355
I1
sS'to'
p3356
I1
sS'Links\nUniversity'
p3357
I1
sS'300'
p3358
I1
sS'Nairobi\n\n\n\n'
p3359
I1
sS'2,450\neuros'
p3360
I1
sS'cultural'
p3361
I1
sS'exchange.The'
p3362
I1
sS'application'
p3363
I2
sS'world'
p3364
I1
sS'on'
p3365
I1
sS'Strobl'
p3366
I1
sS'the'
p3367
I4
sS'Summer'
p3368
I1
sS'Programmes'
p3369
I1
sS'http://shs.univie.ac.at\n\n\nhttp://international.uonbi.ac.ke/node\n\nSylvia\nAdmin'
p3370
I1
sS'of'
p3371
I7
sS'the\nUniversity'
p3372
I1
sS'ranging'
p3373
I1
sS'academic'
p3374
I2
sS'the\nopportunity'
p3375
I1
sS'students'
p3376
I1
sS'areas.\n\nA'
p3377
I1
sS'All,\n\nInternational'
p3378
I1
sS'2012'
p3379
I1
sS'scholarship'
p3380
I1
ssS'label'
p3381
S'GENUINE'
p3382
sa(dp3383
S'word_count'
p3384
(dp3385
g4
I34
sS'(RPE)\n'
p3386
I1
sS'all'
p3387
I2
sS'greetings'
p3388
I1
sS'committed'
p3389
I1
sS'staff'
p3390
I2
sS'to\nscholarly'
p3391
I1
sS'send'
p3392
I1
sS'to'
p3393
I6
sS'has'
p3394
I2
sS'2011'
p3395
I1
sS'M.F.'
p3396
I1
sS'and\nstudents'
p3397
I1
sS'VICE-CHANCELLOR\n(ADMINISTRATION'
p3398
I1
sS'appreciation\nto'
p3399
I1
sS'express'
p3400
I1
sS'world'
p3401
I1
sS'University,\nwhich'
p3402
I1
sS'OF'
p3403
I1
sS'GOODWILL'
p3404
I1
sS'bless'
p3405
I1
sS'NAIROBI\n\nCHRISTMAS'
p3406
I1
sS'the'
p3407
I6
sS'and\nObjects.'
p3408
I1
sS'19,'
p3409
I1
sS'year'
p3410
I1
sS'our'
p3411
I2
sS'for'
p3412
I1
sS'2011\n'
p3413
I1
sS'Year,'
p3414
I1
sS'critical'
p3415
I1
sS'towards\nrealizing'
p3416
I1
sS'University\xe2\x80\x99s'
p3417
I1
sS'University'
p3418
I3
sS'be'
p3419
I1
sS'This'
p3420
I1
sS'(AA)\n'
p3421
I1
sS'strides'
p3422
I1
sS'dedication'
p3423
I1
sS'MBITHI\nDEPUTY'
p3424
I1
sS'AND'
p3425
I2
sS'great'
p3426
I1
sS'Principals\n\n\nUON/CA/1/1/VOL'
p3427
I1
sS'of'
p3428
I3
sS'Blessed'
p3429
I1
sS'STUDENTS\nUNIVERSITY'
p3430
I1
sS'comes'
p3431
I1
sS'STAFF'
p3432
I1
sS'commitment'
p3433
I1
sS'XIV/55\n\nDecember'
p3434
I1
sS'discharge'
p3435
I1
sS'Vice-Chancellor'
p3436
I3
sS'been'
p3437
I1
sS'their'
p3438
I1
sS'2011\n\nAs'
p3439
I1
sS'sincere'
p3440
I1
sS'Prosperous\nNew'
p3441
I1
sS'Vice-Chancellor\n'
p3442
I1
sS'Nairobi'
p3443
I1
sS'ALL'
p3444
I1
sS'Deputy'
p3445
I3
sS'this'
p3446
I1
sS'wish'
p3447
I2
sS'enabled'
p3448
I1
sS'College'
p3449
I1
sS'my'
p3450
I1
sS'and'
p3451
I3
sS'all.\n\n\n\n\nPROF.'
p3452
I1
sS'God'
p3453
I1
sS'is'
p3454
I1
sS'Almighty'
p3455
I1
sS'in'
p3456
I1
sS'Christmas'
p3457
I1
sS'functions'
p3458
I1
sS'Vision,'
p3459
I1
sS'make'
p3460
I1
sS'FINANCE)\n\ncc.'
p3461
I1
sS'(SA)\n'
p3462
I1
sS'take'
p3463
I1
sS'which'
p3464
I1
sS'you'
p3465
I1
sS'PETER'
p3466
I1
sS'I'
p3467
I1
sS'seasons'
p3468
I1
sS'opportunity'
p3469
I1
sS'class'
p3470
I1
sS'a'
p3471
I4
sS'\xe2\x80\x93'
p3472
I1
sS'2012.\n\nMay'
p3473
I1
sS'close,'
p3474
I1
sS'MESSAGE'
p3475
I1
sS'excellence.\n\nI'
p3476
I1
ssS'label'
p3477
S'GENUINE'
p3478
sa(dp3479
S'word_count'
p3480
(dp3481
g4
I78
sS'all'
p3482
I3
sS'may\n>>'
p3483
I1
sS'I.T'
p3484
I4
sS'caused'
p3485
I1
sS'is\n>'
p3486
I1
sS'--\n>>>>>>>>'
p3487
I1
sS'Certificates'
p3488
I1
sS'up,'
p3489
I2
sS'_______________________________________________\n>'
p3490
I9
sS'ty'
p3491
I4
sS'34,'
p3492
I1
sS'+254725264890\nEmail:'
p3493
I1
sS'send'
p3494
I1
sS'>>>>>\n>'
p3495
I6
sS'Penetration'
p3496
I4
sS'16:27:10'
p3497
I1
sS'Disastor'
p3498
I2
sS'very'
p3499
I5
sS'\n>>>>>'
p3500
I6
sS'chuksjonia@gmail.com>'
p3501
I2
sS'<kwezieddy@gmail.com>\n>'
p3502
I1
sS'Tech'
p3503
I2
sS'16:24:17'
p3504
I1
sS'Secure'
p3505
I1
sS'Just'
p3506
I2
sS'--'
p3507
I2
sS'help,'
p3508
I2
sS'list'
p3509
I4
sS'Ibrahim,\n>>'
p3510
I1
sS'small'
p3511
I2
sS'honesty.\n>>>>>>'
p3512
I1
sS'regret'
p3513
I2
sS'from\n>'
p3514
I1
sS'http://orion.my.co.ke/cgi-bin/mailman/listinfo/security\n\n\n\n------------------------------\n\nMessage:'
p3515
I1
sS'from\n>>>'
p3516
I1
sS'wrote:\n>\n>'
p3517
I1
sS'Only'
p3518
I2
sS'the\n>'
p3519
I2
sS'Security@lists.my.co.ke\n>>>>>'
p3520
I1
sS'think\n>>>>'
p3521
I1
sS'what'
p3522
I3
sS'assist..\n>>>>'
p3523
I1
sS'contributed'
p3524
I1
sS'Web,'
p3525
I1
sS'--\n>>>'
p3526
I1
sS'HTML'
p3527
I2
sS'shared'
p3528
I1
sS'wrote:\n>>'
p3529
I1
sS'wrote:\n>>>>>>'
p3530
I1
sS'Re:'
p3531
I4
sS'full'
p3532
I2
sS'excellent.\n>>'
p3533
I1
sS'Ngundi)\n'
p3534
I2
sS'telephone\nor'
p3535
I1
sS'error'
p3536
I1
sS'charset="iso-8859-1"\n\nN'
p3537
I1
sS'here'
p3538
I4
sS'16:34:37'
p3539
I1
sS'Security,'
p3540
I1
sS'others'
p3541
I2
sS'great'
p3542
I2
sS'--\n>'
p3543
I6
sS'forum'
p3544
I2
sS'3:22'
p3545
I2
sS'>wrote:\n>'
p3546
I1
sS'brutal'
p3547
I2
sS'starters.\n>'
p3548
I1
sS'Negativity\n>'
p3549
I1
sS'3.'
p3550
I1
sS'NOT'
p3551
I2
sS'Regards,\n>'
p3552
I2
sS'thats'
p3553
I2
sS'fortune'
p3554
I1
sS'via'
p3555
I2
sS'secure'
p3556
I3
sS'replying,'
p3557
I1
sS'http://code.google.com/p/owasp-testing-checklist/\n>>>'
p3558
I1
sS'{FORUM}http://lists.my.co.ke/pipermail/security/\n>'
p3559
I3
sS'guys,\n>'
p3560
I1
sS'SMS'
p3561
I4
sS'addressed'
p3562
I1
sS'_______________________________________________\n>>>>>'
p3563
I1
sS'list\nSecurity@lists.my.co.ke\nhttp://orion.my.co.ke/cgi-bin/mailman/listinfo/security\n\n\nEnd'
p3564
I1
sS'(Hacking,'
p3565
I3
sS'think\n>'
p3566
I1
sS'2:44'
p3567
I2
sS'use'
p3568
I4
sS'2:47'
p3569
I2
sS'from'
p3570
I3
sS'would'
p3571
I4
sS'&'
p3572
I6
sS'com\n>>>>>>>'
p3573
I1
sS'email.\n--------------'
p3574
I1
sS'next'
p3575
I2
sS'few'
p3576
I2
sS'wondering'
p3577
I2
sS'barred\n>'
p3578
I1
sS'assessment'
p3579
I2
sS'more'
p3580
I1
sS'Digest,'
p3581
I1
sS'O.S.C.P\n>>>>>>>'
p3582
I1
sS'security-owner@lists.my.co.ke\n\nWhen'
p3583
I1
sS'its\n>'
p3584
I1
sS'infosec'
p3585
I1
sS'Domain'
p3586
I1
sS'clue'
p3587
I2
sS'So'
p3588
I2
sS'wrote:\n\n>'
p3589
I2
sS'Hacking'
p3590
I2
sS'behalf'
p3591
I1
sS'Gathungu'
p3592
I2
sS'me'
p3593
I4
sS'this'
p3594
I7
sS'<CAHx-c7Eq+pn459gNHRRmt0eYgPpoUnzxOFgJNYzxahWjPynOsA@mail.gmail.com>\nContent-Type:'
p3595
I1
sS'can'
p3596
I17
sS'akin'
p3597
I2
sS'my'
p3598
I3
sS'this\n>>>>>>'
p3599
I1
sS'links'
p3600
I2
sS'give'
p3601
I2
sS'application,'
p3602
I2
sS'>>>>>>>\n>'
p3603
I7
sS'Issue'
p3604
I1
sS'information'
p3605
I5
sS'travel'
p3606
I1
sS'personally...\n>>>>'
p3607
I1
sS'+1'
p3608
I1
sS'thanks\n>'
p3609
I1
sS'write'
p3610
I2
sS'how'
p3611
I6
sS'attachment'
p3612
I2
sS'10-min'
p3613
I2
sS'checklists'
p3614
I2
sS'Security@lists.my.co.ke\n>>>>>>>>'
p3615
I1
sS'administrator'
p3616
I1
sS'assist..\n>'
p3617
I1
sS'intended'
p3618
I1
sS'may'
p3619
I2
sS'-ty\n>>>>>>'
p3620
I1
sS'(Vincent'
p3621
I2
sS'10\n****************************************\n\n'
p3622
I1
sS'guys'
p3623
I4
sS'com\n>'
p3624
I3
sS'a'
p3625
I24
sS'All'
p3626
I3
sS'maybe'
p3627
I4
sS'_______________________________________________\n>>>'
p3628
I1
sS'Security@lists.my.co.ke\n>>>>>>'
p3629
I1
sS'<mgathungu@gmail.com\n>'
p3630
I1
sS'<\n>>>>>>'
p3631
I1
sS'so'
p3632
I3
sS'scaring'
p3633
I2
sS'Linux'
p3634
I1
sS"Ndung'u\nTechnical"
p3635
I1
sS'http://orion.my.co.ke/cgi-bin/mailman/listinfo/security\n>'
p3636
I6
sS'holds'
p3637
I2
sS'help'
p3638
I6
sS'consent'
p3639
I1
sS'years'
p3640
I2
sS'Jan'
p3641
I16
sS'etc)"\n'
p3642
I3
sS'its'
p3643
I3
sS'_______________________________________________\n>>>>>>>'
p3644
I1
sS'before'
p3645
I2
sS'charset=us-ascii\n\n+1'
p3646
I1
sS'group'
p3647
I2
sS'http://orion.my.co.ke/cgi-bin/mailman/listinfo/security\n>\n\n\n\n--'
p3648
I1
sS'info.'
p3649
I2
sS','
p3650
I4
sS'list\n>'
p3651
I9
sS'>>>'
p3652
I20
sS'3:18'
p3653
I2
sS'disclosed'
p3654
I2
sS'in:'
p3655
I1
sS'World'
p3656
I1
sS'2.'
p3657
I3
sS'come\n>'
p3658
I1
sS'2012'
p3659
I14
sS'then'
p3660
I2
sS'1\nDate:'
p3661
I1
sS'good'
p3662
I6
sS'ya'
p3663
I2
sS'indexing'
p3664
I2
sS'S.S.L'
p3665
I1
sS'break'
p3666
I2
sS'online,\n>'
p3667
I1
sS'Topics:\n\n'
p3668
I1
sS'they'
p3669
I6
sS'not'
p3670
I4
sS'yourself'
p3671
I2
sS'easily'
p3672
I2
sS'edit'
p3673
I1
sS'directory,\n>>>>>>>'
p3674
I1
sS'donehere'
p3675
I1
sS'<kwezieddy@gmail.com>'
p3676
I3
sS'Thanks'
p3677
I4
sS'reasonable'
p3678
I1
sS'found'
p3679
I4
sS'Subject'
p3680
I1
sS'Guys,'
p3681
I2
sS'-ty\n>'
p3682
I1
sS'physical\n'
p3683
I3
sS'doing'
p3684
I2
sS'companies'
p3685
I1
sS'at\n'
p3686
I1
sS'Next'
p3687
I2
sS'used'
p3688
I2
sS'year'
p3689
I2
sS'our'
p3690
I2
sS'fredrick'
p3691
I1
sS'mandated'
p3692
I1
sS'quickly.\n>'
p3693
I1
sS'time,'
p3694
I2
sS'time.'
p3695
I2
sS'iPad\n\nOn'
p3696
I1
sS'Gathungu.\n>>>'
p3697
I1
sS'Hilum,'
p3698
I2
sS'C.E.H'
p3699
I4
sS'e-mail'
p3700
I1
sS'_______________________________________________\n>>>>>>>>'
p3701
I1
sS'I.C.T"*\n\n----------------------------------------\nDISCLAIMER:\n\nThis'
p3702
I1
sS'http://code.google.com/p/owasp-testing-checklist/\n>'
p3703
I1
sS'personally...\n>'
p3704
I1
sS'list\n>>>>>>>>'
p3705
I1
sS'view\ndisseminate'
p3706
I1
sS'reason'
p3707
I1
sS'u.\n\n\nOn'
p3708
I1
sS'>>>>>>>>'
p3709
I7
sS'Security'
p3710
I29
sS'\n>>'
p3711
I9
sS'this.\n>'
p3712
I1
sS'\n>>>>>>'
p3713
I7
sS'keep'
p3714
I2
sS'I.T\nConsultancy.\n"We'
p3715
I1
sS'solely\nfor'
p3716
I1
sS'>>'
p3717
I8
sS'<chuksjonia@gmail.com>'
p3718
I1
sS'writeup.\n\nRegards,\nVincent\n\nSent'
p3719
I1
sS'one'
p3720
I4
sS'done'
p3721
I3
sS'message'
p3722
I5
sS'iPad\n>\n>'
p3723
I1
sS'Website'
p3724
I4
sS'Technologies\nWebsite:'
p3725
I1
sS'd0t'
p3726
I4
sS'Mburu'
p3727
I4
sS'@Chuks:'
p3728
I1
sS'consultant.\n>>>'
p3729
I1
sS'Registration,'
p3730
I1
sS'legally'
p3731
I1
sS'by\nthis'
p3732
I1
sS'wrote:\n>>>'
p3733
I1
sS'http://chuksjonia.blogspot.com/\n>'
p3734
I3
sS'Recovery,'
p3735
I2
sS'<tyruskam@gmail.com>'
p3736
I4
sS'that'
p3737
I8
sS'honesty.\n>'
p3738
I1
sS'to\n'
p3739
I2
sS'DisastorRecovery,'
p3740
I1
sS'unsubscribe'
p3741
I1
sS'2012,'
p3742
I2
sS'believe'
p3743
I2
sS'bit.'
p3744
I2
sS'Love'
p3745
I2
sS'>>>>>>'
p3746
I9
sS'<mgathungu@gmail.com>wrote:\n>>'
p3747
I1
sS'individual'
p3748
I1
sS'O.S.C.P\n>'
p3749
I3
sS'may\n>'
p3750
I1
sS'Hilum.\n>'
p3751
I1
sS'1.'
p3752
I3
sS'and'
p3753
I21
sS'https://www.owasp.org/images/5/56/OWASP_Testing_Guide_v3.pdf\n>'
p3754
I1
sS'search,'
p3755
I2
sS'digest..."\n\n\nToday\'s'
p3756
I1
sS'Security@lists.my.co.ke\n>'
p3757
I9
sS'talking'
p3758
I2
sS'shared\n>'
p3759
I1
sS'"Re:'
p3760
I1
sS'have'
p3761
I6
sS'need'
p3762
I4
sS'any'
p3763
I4
sS'jgichuki'
p3764
I4
sS'guys,'
p3765
I2
sS'\n>'
p3766
I9
sS'documents'
p3767
I2
sS'Vincent\n>\n>'
p3768
I1
sS'Travel\nMessage-ID:'
p3769
I1
sS'http://orion.my.co.ke/cgi-bin/mailman/listinfo/security\n>>>'
p3770
I1
sS'vulnerabilities'
p3771
I2
sS'After'
p3772
I2
sS'note'
p3773
I2
sS'other'
p3774
I3
sS'<security@lists.my.co.ke>\nCc:'
p3775
I1
sS'without'
p3776
I1
sS'N\nthey'
p3777
I1
sS'build'
p3778
I1
sS'which'
p3779
I1
sS'destroy'
p3780
I1
sS'iPad\n--------------'
p3781
I1
sS'even'
p3782
I4
sS'a\n>'
p3783
I1
sS'guide.\n>\n>'
p3784
I1
sS'who'
p3785
I5
sS'reach'
p3786
I1
sS'most'
p3787
I1
sS'virus'
p3788
I2
sS'Applications,'
p3789
I2
sS'{FORUM}http://lists.my.co.ke/pipermail/security/\n>>>>>>>'
p3790
I1
sS'why'
p3791
I2
sS'OWASP'
p3792
I4
sS'Ngundi'
p3793
I3
sS'online,\n>>>>'
p3794
I1
sS'http://chuksjonia.blogspot.com/2011/02/yes-old-friend-scanned-site.html\n>'
p3795
I2
sS'barred'
p3796
I1
sS'security,'
p3797
I3
sS'tech'
p3798
I1
sS'tu....\nAll'
p3799
I1
sS'the\n>>>>'
p3800
I2
sS'left'
p3801
I2
sS'mailing'
p3802
I17
sS'Its'
p3803
I4
sS'Web'
p3804
I2
sS'email,'
p3805
I1
sS'sana...LOL\n>'
p3806
I1
sS'<frewah85@gmail.com>\nTo:'
p3807
I1
sS'list\n>>>>>>>'
p3808
I1
sS'\n>>>'
p3809
I15
sS':D\n>>>'
p3810
I1
sS'http://orion.my.co.ke/cgi-bin/mailman/listinfo/security\n>>>>>>'
p3811
I1
sS'copy'
p3812
I1
sS':D\n>'
p3813
I1
sS'>>>>>>\n>'
p3814
I7
sS'no\nliability'
p3815
I1
sS'--\n>>>>>>>'
p3816
I2
sS'much\n>'
p3817
I1
sS'green,'
p3818
I2
sS'secure\n>'
p3819
I1
sS'(www.owasp.org)\n>>>'
p3820
I1
sS'get'
p3821
I2
sS'important\n>>>'
p3822
I1
sS'truly'
p3823
I1
sS'entity'
p3824
I1
sS'Technologies'
p3825
I3
sS'"Security'
p3826
I3
sS'>>>\n>'
p3827
I15
sS'http://orion.my.co.ke/cgi-bin/mailman/listinfo/security\nor,'
p3828
I1
sS'@Hilum,'
p3829
I2
sS'Regards,\n>>>'
p3830
I1
sS'body'
p3831
I1
sS'thanks\n>>'
p3832
I1
sS'For'
p3833
I2
sS'<\n>'
p3834
I1
sS'Send'
p3835
I1
sS'up'
p3836
I2
sS'Hosting,\nInformation'
p3837
I1
sS'Spread'
p3838
I2
sS'are'
p3839
I12
sS'discussions'
p3840
I3
sS'Gichuki'
p3841
I8
sS'2.0'
p3842
I1
sS'[Security'
p3843
I3
sS'Sent'
p3844
I1
sS'subject'
p3845
I1
sS'find.'
p3846
I2
sS'time\n>>'
p3847
I1
sS'managing'
p3848
I1
sS'away'
p3849
I2
sS'please'
p3850
I3
sS'written'
p3851
I1
sS'Africa\n'
p3852
I1
sS'closed'
p3853
I2
sS'Gathungu.\n>'
p3854
I1
sS'email'
p3855
I1
sS'we'
p3856
I10
sS'terms'
p3857
I2
sS'Forum'
p3858
I4
sS'aredone'
p3859
I1
sS'https://www.owasp.org/images/5/56/OWASP_Testing_Guide_v3.pdf\n>>>'
p3860
I1
sS'key'
p3861
I2
sS'come'
p3862
I1
sS'\nKind'
p3863
I1
sS'received'
p3864
I1
sS'protect'
p3865
I1
sS'wrote:\n>>>>>'
p3866
I1
sS'contain\nconfidential'
p3867
I1
sS'4:24'
p3868
I1
sS'starters.\n>>>>>'
p3869
I1
sS'newbies'
p3870
I2
sS'guys,\n>>>'
p3871
I1
sS'Chege'
p3872
I2
sS'Hacking\nMessage-ID:'
p3873
I1
sS'Contents'
p3874
I1
sS'requested'
p3875
I1
sS'websites?'
p3876
I2
sS'simple'
p3877
I6
sS'Travel'
p3878
I1
sS'<vincent@ngundi.me.ke>\nTo:'
p3879
I2
sS'subscribe'
p3880
I1
sS'\n>>>>>>>>'
p3881
I1
sS'consultant.\n>'
p3882
I1
sS'laugh'
p3883
I2
sS'directory,\n>'
p3884
I1
sS'folders!\n>>>>>>>'
p3885
I1
sS'War'
p3886
I2
sS'Secunets'
p3887
I2
sS'Positivity,'
p3888
I2
sS'Ibrahim'
p3889
I4
sS'whom'
p3890
I1
sS'Tester\n>>>>>>>'
p3891
I1
sS'privilege'
p3892
I1
sS'charset="us-ascii"\n\nInteresting'
p3893
I1
sS'Director\nSecunets'
p3894
I1
sS'Security@lists.my.co.ke\n>>>>>>>'
p3895
I1
sS'>'
p3896
I14
sS'website'
p3897
I2
sS'list\n>>>>>>'
p3898
I1
sS'quickly.\n>>'
p3899
I1
sS'text/plain;'
p3900
I3
sS'companies\nprobably'
p3901
I1
sS'FREE'
p3902
I2
sS'else'
p3903
I2
sS'wrote:\n>>>>'
p3904
I1
sS'Forum]'
p3905
I3
sS'\n>>>>'
p3906
I9
sS'Vincent'
p3907
I3
sS'Assessments'
p3908
I3
sS'those'
p3909
I4
sS'confidentiality\nand/or'
p3910
I1
sS'case'
p3911
I2
sS'has'
p3912
I2
sS'3:46'
p3913
I2
sS'these'
p3914
I2
sS'will'
p3915
I2
sS'surprised'
p3916
I2
sS'folders!\n>'
p3917
I1
sS'tips:\nhttps://s3.amazonaws.com/access.3cdn.net/bc753ed72654806c60_l1m6bhy14.pdf\n\nRegards,\nVincent\n\nSent'
p3918
I1
sS'fun'
p3919
I2
sS'http://orion.my.co.ke/cgi-bin/mailman/listinfo/security\n>>>>'
p3920
I1
sS'>>>>>>>'
p3921
I14
sS'MVed'
p3922
I2
sS'<security@lists.my.co.ke>\nSubject:'
p3923
I3
sS'time\n>'
p3924
I1
sS'is'
p3925
I11
sS'it'
p3926
I14
sS'Security@lists.my.co.ke\n>>>>'
p3927
I1
sS'someone'
p3928
I2
sS'in'
p3929
I7
sS'writeup.\n>\n>'
p3930
I1
sS'You'
p3931
I4
sS'management,'
p3932
I3
sS'Wahome)\n\n\n----------------------------------------------------------------------\n\nMessage:'
p3933
I1
sS'if'
p3934
I2
sS'etc'
p3935
I3
sS'research.\n>>>'
p3936
I1
sS'_______________________________________________\n>>>>>>'
p3937
I1
sS'>\n>'
p3938
I6
sS'(fredrick'
p3939
I1
sS'wrote:\n>'
p3940
I6
sS'Safer'
p3941
I2
sS'http://orion.my.co.ke/cgi-bin/mailman/listinfo/security\n>>>>>>>'
p3942
I1
sS'privileged'
p3943
I1
sS'here.'
p3944
I2
sS'_______________________________________________\n>>>>'
p3945
I1
sS'much\n>>>'
p3946
I1
sS'disclosure.'
p3947
I2
sS'I'
p3948
I8
sS'assist'
p3949
I2
sS'user'
p3950
I2
sS'research.\n>'
p3951
I1
sS'list\n>>>>>'
p3952
I1
sS'Salvation'
p3953
I2
sS"'help'"
p3954
I1
sS'reflection'
p3955
I1
sS'i'
p3956
I6
sS'excellent.\n>'
p3957
I1
sS'person'
p3958
I1
sS'contact'
p3959
I1
sS'Hacking\nMessage-ID:\n'
p3960
I1
sS'the'
p3961
I26
sS'If'
p3962
I4
sS'Regards;\n\n\n\n------------------------------------------\n*Fredrick'
p3963
I1
sS'\n>>>>>>>'
p3964
I8
sS'<chuksjonia@gmail.com>\n>'
p3965
I1
sS'just'
p3966
I2
sS'"salute"'
p3967
I1
sS'distribute'
p3968
I1
sS'mistaken'
p3969
I1
sS'specific\nthan'
p3970
I1
sS'file(s)'
p3971
I1
sS'administrator\n>'
p3972
I1
sS'web'
p3973
I2
sS'<B2E26B0A-4E39-4EA5-BC1E-5F109D75AE94@ngundi.me.ke>\nContent-Type:'
p3974
I1
sS'thinking'
p3975
I2
sS'Eunice'
p3976
I2
sS'had'
p3977
I2
sS'cuz'
p3978
I2
sS'googling'
p3979
I2
sS'Thu,'
p3980
I14
sS'Although'
p3981
I1
sS'transmission.\nIf'
p3982
I1
sS'save'
p3983
I1
sS'submissions'
p3984
I1
sS'Analyst'
p3985
I4
sS'security-request@lists.my.co.ke\n\nYou'
p3986
I1
sS'On'
p3987
I15
sS'wrote:\n>>>>>>>>'
p3988
I1
sS'to'
p3989
I19
sS'read'
p3990
I1
sS'big'
p3991
I1
sS'Hey'
p3992
I2
sS'Below'
p3993
I2
sS'John'
p3994
I8
sS'know'
p3995
I4
sS'4:14'
p3996
I2
sS'damage'
p3997
I1
sS'part'
p3998
I2
sS'Kenya.'
p3999
I1
sS'any\n>>>>>'
p4000
I1
sS'Ibrahim,\n>'
p4001
I1
sS'list\n>>>'
p4002
I1
sS'like'
p4003
I2
sS'lost'
p4004
I1
sS'3\nDate:'
p4005
I1
sS'Hilum'
p4006
I4
sS'informative'
p4007
I2
sS'list\n>>>>'
p4008
I1
sS'security'
p4009
I7
sS'fred@secunets.com\nExperts'
p4010
I1
sS'google'
p4011
I2
sS'<vincent@ngundi.me.ke>'
p4012
I1
sS'www.secunets.com\nCell:'
p4013
I1
sS'guide.\n\n@Chuks:'
p4014
I1
sS'do'
p4015
I6
sS'some'
p4016
I2
sS'www.owasp.org)\n>'
p4017
I1
sS'precautions'
p4018
I1
sS'just\n>'
p4019
I1
sS'Email'
p4020
I4
sS'tutorial'
p4021
I2
sS'hearty'
p4022
I2
sS'Hilum.\n>>>>'
p4023
I1
sS'and/or'
p4024
I1
sS'you,\n>'
p4025
I2
sS'for'
p4026
I16
sS'5,'
p4027
I13
sS'1/5/12,'
p4028
I4
sS'Pole'
p4029
I2
sS'<http://orion.my.co.ke/pipermail/security/attachments/20120105/092b6862/attachment.htm>\n\n------------------------------\n\n_______________________________________________\nSecurity'
p4030
I1
sS'save\n>'
p4031
I1
sS'Kenya.\nChuks'
p4032
I1
sS'sana...LOL\n>>>>>>>>'
p4033
I1
sS'Hilum\n>>'
p4034
I1
sS'takes\nall'
p4035
I1
sS'transmitted'
p4036
I2
sS'file\ntransmitted'
p4037
I1
sS'http://chuksjonia.blogspot.com/\n>>>>>>>'
p4038
I1
sS'be'
p4039
I5
sS'Hilum\n>'
p4040
I1
sS'passion...atleast'
p4041
I2
sS'any\n>'
p4042
I1
sS'<0EED12EA-450E-469A-9E4A-405FF0A2E696@ngundi.me.ke>\nContent-Type:'
p4043
I1
sS'>>\n>'
p4044
I10
sS'Chuksjonia'
p4045
I4
sS'post'
p4046
I2
sS'by'
p4047
I8
sS'this\n>>>>'
p4048
I1
sS'on'
p4049
I6
sS'about'
p4050
I6
sS'getting'
p4051
I2
sS'just\n>>>>>'
p4052
I1
sS'of'
p4053
I14
sS'accepts'
p4054
I1
sS'2\nDate:'
p4055
I1
sS'>>>>\n>'
p4056
I9
sS'ensure'
p4057
I1
sS'free,'
p4058
I1
sS'+0300\nFrom:'
p4059
I3
sS'or'
p4060
I5
sS'guide'
p4061
I2
sS'No'
p4062
I2
sS'inbox'
p4063
I4
sS'hapo'
p4064
I2
sS'your'
p4065
I3
sS'Ndirangu,'
p4066
I4
sS'--------------\nAn'
p4067
I2
sS'<http://orion.my.co.ke/pipermail/security/attachments/20120105/df9c9f99/attachment-0001.htm>\n\n------------------------------\n\nMessage:'
p4068
I1
sS'Army'
p4069
I2
sS'>>>>'
p4070
I13
sS'long'
p4071
I2
sS'start'
p4072
I2
sS'our\n>>>>>'
p4073
I1
sS'http://orion.my.co.ke/cgi-bin/mailman/listinfo/security\n>\n>'
p4074
I1
sS'authorized'
p4075
I1
sS'http://orion.my.co.ke/cgi-bin/mailman/listinfo/security\n>>>>>>>>'
p4076
I1
sS'original.'
p4077
I1
sS'important\n>'
p4078
I1
sS'was'
p4079
I2
sS'skiddies'
p4080
I2
sS'>>>>>'
p4081
I9
sS'of\nSecunets'
p4082
I1
sS'are\n'
p4083
I2
sS'but'
p4084
I4
sS'PM,'
p4085
I13
sS'line'
p4086
I1
sS'with'
p4087
I3
sS'Guide'
p4088
I2
sS'posted'
p4089
I2
sS'info'
p4090
I4
sS'sender'
p4091
I1
sS'Vol'
p4092
I1
sS'Africa'
p4093
I2
sS'this,'
p4094
I2
sS'a\n>>>'
p4095
I1
sS'500'
p4096
I1
sS'Fraud,'
p4097
I8
sS'(\n>'
p4098
I1
sS'Ty'
p4099
I2
sS'<eunflirty@gmail.com>'
p4100
I2
sS'am'
p4101
I8
sS'Tester\n>'
p4102
I3
sS'as'
p4103
I4
sS'at'
p4104
I17
sS'http://orion.my.co.ke/cgi-bin/mailman/listinfo/security\n>>>>>'
p4105
I1
sS'C.P.T.P,'
p4106
I4
sS'Wahome'
p4107
I2
sS'philosophy,'
p4108
I2
sS'no'
p4109
I2
sS'website/'
p4110
I2
sS'website.'
p4111
I2
sS'5'
p4112
I3
sS'Negativity\n>>>>>>>>'
p4113
I1
sS'Decryptions,'
p4114
I3
sS'visit\n'
p4115
I1
sS'you'
p4116
I16
sS'@Bright'
p4117
I2
sS'this.\n>>>'
p4118
I1
sS'Wide'
p4119
I1
sS'again,'
p4120
I2
sS'Security@lists.my.co.ke\n>>>'
p4121
I1
sS'does.'
p4122
I2
sS'>>>>>>>>\n>'
p4123
I2
sS'exposure'
p4124
I2
sS'scrubbed...\nURL:'
p4125
I2
sS'waived'
p4126
I1
sS'this\n>'
p4127
I2
sS'security@lists.my.co.ke\n\nTo'
p4128
I1
sS'our\n>'
p4129
I1
sS'having'
p4130
I2
ssS'label'
p4131
g282
sa(dp4132
S'word_count'
p4133
(dp4134
S'and'
p4135
I3
sS'\n\nVictoria\n\n===========================\n\nVictoria'
p4136
I1
sS'questions'
p4137
I1
sS'1SA\nEngland\n'
p4138
I1
sS'urge'
p4139
I1
sS'guidelines'
p4140
I1
sS'am'
p4141
I1
sS'proceed'
p4142
I1
sS'an'
p4143
I1
sS'second'
p4144
I1
sS'Trustees'
p4145
I1
sS'are'
p4146
I1
sS'have'
p4147
I1
sS'in'
p4148
I1
sS'pleased'
p4149
I1
sS'Prize'
p4150
I1
sS'Cambridgeshire\nCB10'
p4151
I1
sS'hesitate'
p4152
I1
sS'by'
p4153
I1
sS'considered'
p4154
I1
sS'Campus\nHinxton,'
p4155
I1
sS'would'
p4156
I1
sS'attach'
p4157
I1
sS'\nTel:'
p4158
I1
sS'thoroughly'
p4159
I1
sS'please'
p4160
I1
sS'deadline.\n\n'
p4161
I1
sS'submit'
p4162
I1
sS'any'
p4163
I1
sS'note'
p4164
I1
sS'to'
p4165
I8
sS'details'
p4166
I1
sS'which'
p4167
I1
sS'Ling'
p4168
I1
sS'me.\n\n'
p4169
I1
sS'applicant,\n\n'
p4170
I1
sS'was'
p4171
I1
sS'today'
p4172
I1
sS'2012'
p4173
I1
sS'Administrator\n\nWellcome'
p4174
I1
sS'do'
p4175
I1
sS'invite'
p4176
I1
sS'that'
p4177
I2
sS'very'
p4178
I1
sS'answered'
p4179
I1
sS'inform'
p4180
I1
sS'494846\n\n'
p4181
I1
sS'\n\nKind'
p4182
I1
sS'they'
p4183
I1
sS'Institute\nWellcome'
p4184
I1
sS'not'
p4185
I2
sS'guidelines,'
p4186
I1
sS'you'
p4187
I4
sS'(0)1223'
p4188
I1
sS'stage'
p4189
I1
sS'I'
p4190
I2
sS'like'
p4191
I1
sS'essay.\n\n'
p4192
I1
sS'read'
p4193
I1
sS'of'
p4194
I2
sS'\n\nYour'
p4195
I1
sS'regards,\n\n'
p4196
I1
sS'+44'
p4197
I1
sS'contact'
p4198
I1
sS'Sanger'
p4199
I2
sS'\n\nI'
p4200
I1
sS'essay,'
p4201
I1
sS'Dear'
p4202
I1
sS'competition:'
p4203
I1
sS'the'
p4204
I8
sS'Trust'
p4205
I2
sS'application'
p4206
I1
sS'\n\nIf'
p4207
I1
sS'PhD\n\nScientific'
p4208
I1
sS'Genome'
p4209
I1
ssS'label'
p4210
S'GENUINE'
p4211
sa(dp4212
S'word_count'
p4213
(dp4214
g4
I2
sS'and'
p4215
I1
sS'help'
p4216
I1
sS'office'
p4217
I1
sS'up'
p4218
I2
sS'please'
p4219
I1
sS'send/ship'
p4220
I1
sS'\n'
p4221
I3
sS'displayed'
p4222
I1
sS'we'
p4223
I1
sS'competition'
p4224
I1
sS'KN'
p4225
I1
sS'not'
p4226
I1
sS'deadline'
p4227
I1
sS'have'
p4228
I1
sS'need'
p4229
I1
sS'campus'
p4230
I2
sS'Hope'
p4231
I1
sS'out'
p4232
I1
sS'let'
p4233
I1
sS'We'
p4234
I1
sS'from'
p4235
I2
sS'to'
p4236
I7
sS'Photography'
p4237
I1
sS'get'
p4238
I1
sS'able'
p4239
I1
sS'next'
p4240
I1
sS'few'
p4241
I1
sS'remind'
p4242
I1
sS'you'
p4243
I2
sS'before'
p4244
I1
sS'be'
p4245
I2
sS'them'
p4246
I1
sS'someone'
p4247
I1
sS'Prize'
p4248
I1
sS'that'
p4249
I1
sS'I'
p4250
I1
sS'January'
p4251
I1
sS'asap.'
p4252
I1
sS'Will'
p4253
I1
sS'hear'
p4254
I1
sS'know'
p4255
I1
sS'Kenya'
p4256
I1
sS'put'
p4257
I1
sS'posters'
p4258
I2
sS'wanted'
p4259
I1
sS'Hello'
p4260
I1
sS'a'
p4261
I1
sS'on'
p4262
I2
sS'about'
p4263
I1
sS'Google'
p4264
I2
sS'word'
p4265
I1
sS'of'
p4266
I1
sS'competition.'
p4267
I1
sS'us'
p4268
I1
sS'person'
p4269
I1
sS'week?'
p4270
I1
sS'contact'
p4271
I1
sS'soon.\n\nThanks,'
p4272
I1
sS'can'
p4273
I1
sS'Ambassadors,'
p4274
I1
sS'pick'
p4275
I1
sS'31st.'
p4276
I1
sS'the'
p4277
I7
sS'address'
p4278
I1
sS'If'
p4279
I1
ssS'label'
p4280
g843
sa(dp4281
S'word_count'
p4282
(dp4283
S'Dutch'
p4284
I3
sS'Resource;'
p4285
I1
sS'just'
p4286
I1
sS'among'
p4287
I1
sS'being'
p4288
I1
sS'663'
p4289
I1
sS'unrest'
p4290
I1
sS'right.\nThis'
p4291
I1
sS'find'
p4292
I1
sS'issues'
p4293
I1
sS'dont'
p4294
I1
sS'site'
p4295
I1
sS'Creation;'
p4296
I1
sS'DCJ'
p4297
I1
sS'Tourist'
p4298
I1
sS'Business'
p4299
I3
sS'how'
p4300
I1
sS',because'
p4301
I1
sS'Brand'
p4302
I1
sS'Auditing;'
p4303
I1
sS'Victoria'
p4304
I1
sS'to'
p4305
I14
sS'has'
p4306
I1
sS'Change'
p4307
I2
sS'0721'
p4308
I1
sS'government'
p4309
I2
sS'banned'
p4310
I1
sS'Yps\nToday'
p4311
I1
sS'Project'
p4312
I1
sS'community'
p4313
I1
sS'they'
p4314
I2
sS'Entrepreneurship;'
p4315
I1
sS'not'
p4316
I1
sS'Behaviour;'
p4317
I1
sS'now'
p4318
I1
sS'System;'
p4319
I1
sS'units.'
p4320
I1
sS'Operations'
p4321
I2
sS'and'
p4322
I2
sS'like'
p4323
I2
sS'Strategy;'
p4324
I1
sS'did'
p4325
I1
sS'poor,just'
p4326
I1
sS'these'
p4327
I1
sS'bad'
p4328
I1
sS'BOOKS'
p4329
I1
sS'she'
p4330
I1
sS'Sales'
p4331
I1
sS'ban'
p4332
I3
sS'Kenya'
p4333
I4
sS'security'
p4334
I1
sS'miraa'
p4335
I1
sS'Management'
p4336
I2
sS'Wealth'
p4337
I1
sS'doing'
p4338
I1
sS'Insurance;'
p4339
I1
sS'books'
p4340
I1
sS'export'
p4341
I1
sS'expect'
p4342
I1
sS'International'
p4343
I1
sS'best'
p4344
I1
sS'Luo'
p4345
I1
sS'will'
p4346
I1
sS'mood'
p4347
I1
sS'beg'
p4348
I1
sS'\nThanks\nGibson'
p4349
I1
sS'remain'
p4350
I1
sS'Public'
p4351
I1
sS'continue'
p4352
I1
sS'retaliate'
p4353
I1
sS'Village'
p4354
I1
sS'rethink'
p4355
I1
sS'import'
p4356
I1
sS'Francis'
p4357
I1
sS'can'
p4358
I1
sS'francis@safarisoftsolutions.com\n\n'
p4359
I1
sS'we'
p4360
I3
sS'\nThe'
p4361
I1
sS'water.\n\nThe'
p4362
I1
sS'Mt'
p4363
I1
sS'soon.\n--'
p4364
I1
sS'Skills;'
p4365
I1
sS'Leadership;'
p4366
I1
sS'by'
p4367
I1
sS'E-books'
p4368
I1
sS'on'
p4369
I3
sS'Chain'
p4370
I1
sS'Marketing;'
p4371
I1
sS'quitely'
p4372
I1
sS'of'
p4373
I4
sS'region'
p4374
I1
sS'Contact'
p4375
I1
sS'Human'
p4376
I1
sS'Economics;'
p4377
I1
sS'Organizational'
p4378
I2
sS'implement'
p4379
I1
sS'Chege'
p4380
I1
sS'whole'
p4381
I1
sS'or'
p4382
I2
sS'comes'
p4383
I1
sS'plan'
p4384
I1
sS'feed'
p4385
I1
sS'Mathematics;'
p4386
I1
sS'\nFor'
p4387
I1
sS'members'
p4388
I1
sS'bridge'
p4389
I1
sS'DVD'
p4390
I1
sS'Relations'
p4391
I1
sS'one'
p4392
I1
sS'guard'
p4393
I1
sS'excuse'
p4394
I1
sS'Theory;'
p4395
I2
sS'another'
p4396
I1
sS'Law;'
p4397
I1
sS'are'
p4398
I1
sS'little'
p4399
I2
sS'from'
p4400
I2
sS'REFERENCE'
p4401
I1
sS'&'
p4402
I4
sS'books).'
p4403
I1
sS'\nAre'
p4404
I1
sS'due'
p4405
I1
sS'been'
p4406
I1
sS'Investments'
p4407
I1
sS'2'
p4408
I1
sS'way'
p4409
I1
sS'Market\nNow'
p4410
I1
sS'was'
p4411
I3
sS'more'
p4412
I1
sS'complete'
p4413
I1
sS'that'
p4414
I2
sS'but'
p4415
I1
sS'else'
p4416
I2
sS'house,Dutch'
p4417
I1
sS'Amenya\n\n\n--'
p4418
I1
sS'hold'
p4419
I1
sS'Consumer'
p4420
I1
sS'info'
p4421
I1
sS'1024'
p4422
I1
sS'Supply'
p4423
I1
sS'this'
p4424
I1
sS'3,000.\n'
p4425
I1
sS'incase'
p4426
I1
sS'Meru'
p4427
I1
sS'youth'
p4428
I1
sS'Britain'
p4429
I1
sS'sent'
p4430
I1
sS'Communication'
p4431
I1
sS'following'
p4432
I1
sS'making'
p4433
I1
sS'problem'
p4434
I1
sS'mirra'
p4435
I2
sS'Market'
p4436
I1
sS'Nyanza'
p4437
I1
sS'species.\n\nIs'
p4438
I1
sS'Information'
p4439
I1
sS'Vice'
p4440
I1
sS'Management;'
p4441
I8
sS'imports'
p4442
I1
sS'is'
p4443
I3
sS'in'
p4444
I4
sS'am'
p4445
I1
sS'Lake'
p4446
I1
sS'an'
p4447
I1
sS'as'
p4448
I2
sS'20b'
p4449
I1
sS'battered'
p4450
I1
sS'have'
p4451
I3
sS'Performance'
p4452
I1
sS'Nile'
p4453
I1
sS'any'
p4454
I1
sS'Real'
p4455
I1
sS'ban.\n\nThe'
p4456
I1
sS'\nHello'
p4457
I1
sS',our'
p4458
I1
sS'Perch'
p4459
I1
sS'when'
p4460
I3
sS'MBA'
p4461
I1
sS'Banking;'
p4462
I1
sS'elephant'
p4463
I1
sS'President'
p4464
I1
sS'you'
p4465
I1
sS'Qualitative'
p4466
I1
sS'economy'
p4467
I1
sS'others.\n'
p4468
I1
sS'I'
p4469
I1
sS'package'
p4470
I1
sS'social'
p4471
I1
sS'collection'
p4472
I1
sS'Culture;'
p4473
I1
sS'trickling'
p4474
I1
sS'Finance;'
p4475
I3
sS'coming'
p4476
I1
sS'The'
p4477
I1
sS'gap'
p4478
I1
sS'Corporate'
p4479
I1
sS'Risk'
p4480
I1
sS'a'
p4481
I3
sS'208;'
p4482
I1
sS'introduced'
p4483
I1
sS'PACKAGE,'
p4484
I1
sS'Tilapia'
p4485
I2
sS'Estate'
p4486
I1
sS'Research;'
p4487
I3
sS'Statistics;'
p4488
I1
sS'Plan;'
p4489
I1
sS'Investment'
p4490
I1
sS'Ksh.'
p4491
I1
sS'nosed'
p4492
I1
sS'Cost'
p4493
I2
sS'MBA?\n\nWe'
p4494
I1
sS'(PDF'
p4495
I1
sS'time'
p4496
I1
sS'at'
p4497
I1
sS'Accounting'
p4498
I1
sS'the'
p4499
I6
sS'left'
p4500
I1
ssS'label'
p4501
g1761
sa(dp4502
S'word_count'
p4503
(dp4504
S'and'
p4505
I3
sS'summer'
p4506
I1
sS'all'
p4507
I1
sS'28,2012.\n\nFor'
p4508
I1
sS'partial'
p4509
I1
sS'Sommerhochschule'
p4510
I1
sS'limited'
p4511
I1
sS'visit'
p4512
I1
sS'over'
p4513
I1
sS'number'
p4514
I1
sS'summer\nprogram'
p4515
I1
sS'financial'
p4516
I1
sS'Program'
p4517
I1
sS'deadline'
p4518
I1
sS'2,450\neuros'
p4519
I1
sS'in'
p4520
I2
sS'International'
p4521
I2
sS'is\nFebruary'
p4522
I1
sS"Austria's\nmost"
p4523
I1
sS'excellence\nand'
p4524
I1
sS'Vienna'
p4525
I1
sS'information'
p4526
I1
sS'scholarships'
p4527
I1
sS'from'
p4528
I2
sS'for'
p4529
I3
sS'euros'
p4530
I1
sS'Asst\nCentre'
p4531
I1
sS'300'
p4532
I1
sS'vacation'
p4533
I1
sS'region,one'
p4534
I1
sS'awarded'
p4535
I1
sS'located'
p4536
I1
sS'offers'
p4537
I1
sS'attractive'
p4538
I1
sS'Nairobi\n\n\n\n'
p4539
I1
sS'Salzkammergut'
p4540
I1
sS'is'
p4541
I1
sS'2012'
p4542
I1
sS'available'
p4543
I1
sS'basis'
p4544
I1
sS'more'
p4545
I1
sS'to'
p4546
I1
sS'on'
p4547
I1
sS'students'
p4548
I1
sS'http://shs.univie.ac.at\n\n\nhttp://international.uonbi.ac.ke/node\n\nSylvia\nAdmin'
p4549
I1
sS'cultural'
p4550
I1
sS'exchange.The'
p4551
I1
sS'scholarship'
p4552
I1
sS'application'
p4553
I2
sS'world'
p4554
I1
sS'Strobl'
p4555
I1
sS'the'
p4556
I4
sS'Summer'
p4557
I1
sS'Programmes'
p4558
I1
sS'Links\nUniversity'
p4559
I1
sS'of'
p4560
I7
sS'the\nUniversity'
p4561
I1
sS'ranging'
p4562
I1
sS'academic'
p4563
I2
sS'the\nopportunity'
p4564
I1
sS'areas.\n\nA'
p4565
I1
sS'All,\n\nInternational'
p4566
I1
sS'need.The'
p4567
I1
sS'are'
p4568
I2
ssS'label'
p4569
S'SPAM'
p4570
sa.